

Microchip MPLAB XC8 Assembler V2.30 build 20200825195618 
                                                                                               Tue Jun  7 19:23:20 2022

Microchip MPLAB XC8 C Compiler v2.30 (Free license) build 20200825195618 Og1 
     1                           	processor	18F8722
     2                           	fnconf	rparam,??,?,0
     3                           	pagewidth 120
     4                           	opt	flic
     5                           	psect	idataBANK0,global,class=CODE,delta=1,noexec
     6                           	psect	idataBANK1,global,class=CODE,delta=1,noexec
     7                           	psect	smallconst,global,reloc=2,class=SMALLCONST,delta=1,noexec
     8                           	psect	cinit,global,reloc=2,class=CODE,delta=1
     9                           	psect	bssCOMRAM,global,class=COMRAM,space=1,delta=1,lowdata,noexec
    10                           	psect	bssBANK0,global,class=BANK0,space=1,delta=1,lowdata,noexec
    11                           	psect	dataBANK0,global,class=BANK0,space=1,delta=1,lowdata,noexec
    12                           	psect	bssBANK1,global,class=BANK1,space=1,delta=1,lowdata,noexec
    13                           	psect	dataBANK1,global,class=BANK1,space=1,delta=1,lowdata,noexec
    14                           	psect	cstackBANK1,global,class=BANK1,space=1,delta=1,lowdata,noexec
    15                           	psect	cstackBANK0,global,class=BANK0,space=1,delta=1,lowdata,noexec
    16                           	psect	cstackCOMRAM,global,class=COMRAM,space=1,delta=1,lowdata,noexec
    17                           	psect	text0,global,reloc=2,class=CODE,delta=1
    18                           	psect	text1,global,reloc=2,class=CODE,delta=1
    19                           	psect	text2,global,reloc=2,class=CODE,delta=1
    20                           	psect	text3,global,reloc=2,class=CODE,delta=1
    21                           	psect	text4,global,reloc=2,class=CODE,delta=1
    22                           	psect	text5,global,reloc=2,class=CODE,delta=1
    23                           	psect	text6,global,reloc=2,class=CODE,delta=1
    24                           	psect	text7,global,reloc=2,class=CODE,delta=1
    25                           	psect	text8,global,reloc=2,class=CODE,delta=1,group=1
    26                           	psect	text9,global,reloc=2,class=CODE,delta=1
    27                           	psect	text10,global,reloc=2,class=CODE,delta=1
    28                           	psect	text11,global,reloc=2,class=CODE,delta=1
    29                           	psect	intcodelo,global,reloc=2,class=CODE,delta=1
    30                           	psect	text13,global,reloc=2,class=CODE,delta=1
    31                           	psect	text14,global,reloc=2,class=CODE,delta=1,group=2
    32                           	psect	text15,global,reloc=2,class=CODE,delta=1,group=1
    33                           	psect	text16,global,reloc=2,class=CODE,delta=1,group=1
    34                           	psect	text17,global,reloc=2,class=CODE,delta=1,group=1
    35                           	psect	text18,global,reloc=2,class=CODE,delta=1,group=1
    36                           	psect	text19,global,reloc=2,class=CODE,delta=1,group=1
    37                           	psect	text20,global,reloc=2,class=CODE,delta=1,group=1
    38                           	psect	intcode,global,reloc=2,class=CODE,delta=1
    39                           	psect	intcode_body,global,reloc=2,class=CODE,delta=1
    40                           	psect	text22,global,reloc=2,class=CODE,delta=1
    41                           	psect	text23,global,reloc=2,class=CODE,delta=1
    42                           	psect	intsave_regs,global,class=BIGRAM,space=1,delta=1,noexec
    43                           	psect	rparam,global,class=COMRAM,space=1,delta=1,noexec
    44                           	psect	temp,global,ovrld,common,class=COMRAM,space=1,delta=1
    45                           	psect	idloc,global,abs,ovrld,class=IDLOC,space=5,delta=1,noexec
    46                           	psect	config,global,abs,ovrld,class=CONFIG,space=4,delta=1,noexec
    47  0000                     
    48                           ; Version 2.20
    49                           ; Generated 12/02/2020 GMT
    50                           ; 
    51                           ; Copyright © 2020, Microchip Technology Inc. and its subsidiaries ("Microchip")
    52                           ; All rights reserved.
    53                           ; 
    54                           ; This software is developed by Microchip Technology Inc. and its subsidiaries ("Microch
      +                          ip").
    55                           ; 
    56                           ; Redistribution and use in source and binary forms, with or without modification, are
    57                           ; permitted provided that the following conditions are met:
    58                           ; 
    59                           ;     1. Redistributions of source code must retain the above copyright notice, this lis
      +                          t of
    60                           ;        conditions and the following disclaimer.
    61                           ; 
    62                           ;     2. Redistributions in binary form must reproduce the above copyright notice, this 
      +                          list
    63                           ;        of conditions and the following disclaimer in the documentation and/or other
    64                           ;        materials provided with the distribution.
    65                           ; 
    66                           ;     3. Microchip's name may not be used to endorse or promote products derived from th
      +                          is
    67                           ;        software without specific prior written permission.
    68                           ; 
    69                           ; THIS SOFTWARE IS PROVIDED BY MICROCHIP "AS IS" AND ANY EXPRESS OR IMPLIED WARRANTIES,
    70                           ; INCLUDING, BUT NOT LIMITED TO, THE IMPLIED WARRANTIES OF MERCHANTABILITY AND FITNESS F
      +                          OR
    71                           ; PURPOSE ARE DISCLAIMED.  IN NO EVENT SHALL MICROCHIP BE LIABLE FOR ANY DIRECT, INDIREC
      +                          T,
    72                           ; INCIDENTAL, SPECIAL, EXEMPLARY, OR CONSEQUENTIAL DAMAGES (INCLUDING BUT NOT LIMITED TO
    73                           ; PROCUREMENT OF SUBSTITUTE GOODS OR SERVICES; LOSS OF USE, DATA OR PROFITS; OR BUSINESS
    74                           ; INTERRUPTION) HOWSOEVER CAUSED AND ON ANY THEORY OF LIABILITY, WHETHER IN CONTRACT, ST
      +                          RICT
    75                           ; LIABILITY, OR TORT (INCLUDING NEGLIGENCE OR OTHERWISE) ARISING IN ANY WAY OUT OF THE U
      +                          SE OF
    76                           ; THIS SOFTWARE, EVEN IF ADVISED OF THE POSSIBILITY OF SUCH DAMAGE.
    77                           ; 
    78                           ; 
    79                           ; Code-generator required, PIC18F8722 Definitions
    80                           ; 
    81                           ; SFR Addresses
    82  0000                     
    83                           	psect	idataBANK0
    84  003806                     __pidataBANK0:
    85                           	callstack 0
    86                           
    87                           ;initializer for _SSEGMENT_NUMBERS_GLYPHS
    88  003806  3F                 	db	63
    89  003807  06                 	db	6
    90  003808  5B                 	db	91
    91  003809  4F                 	db	79
    92  00380A  66                 	db	102
    93  00380B  6D                 	db	109
    94  00380C  7D                 	db	125
    95  00380D  07                 	db	7
    96  00380E  7F                 	db	127
    97  00380F  6F                 	db	111
    98  003810  77                 	db	119
    99  003811  7C                 	db	124
   100  003812  58                 	db	88
   101  003813  5E                 	db	94
   102  003814  79                 	db	121
   103  003815  71                 	db	113
   104                           
   105                           ;initializer for _row
   106  003816  0001               	dw	1
   107                           
   108                           	psect	idataBANK1
   109  0037BC                     __pidataBANK1:
   110                           	callstack 0
   111                           
   112                           ;initializer for _PREDEFINED
   113  0037BC  20                 	db	32
   114  0037BD  61                 	db	97
   115  0037BE  62                 	db	98
   116  0037BF  63                 	db	99
   117  0037C0  64                 	db	100
   118  0037C1  65                 	db	101
   119  0037C2  66                 	db	102
   120  0037C3  67                 	db	103
   121  0037C4  68                 	db	104
   122  0037C5  69                 	db	105
   123  0037C6  6A                 	db	106
   124  0037C7  6B                 	db	107
   125  0037C8  6C                 	db	108
   126  0037C9  6D                 	db	109
   127  0037CA  6E                 	db	110
   128  0037CB  6F                 	db	111
   129  0037CC  70                 	db	112
   130  0037CD  71                 	db	113
   131  0037CE  72                 	db	114
   132  0037CF  73                 	db	115
   133  0037D0  74                 	db	116
   134  0037D1  75                 	db	117
   135  0037D2  76                 	db	118
   136  0037D3  77                 	db	119
   137  0037D4  78                 	db	120
   138  0037D5  79                 	db	121
   139  0037D6  7A                 	db	122
   140  0037D7  30                 	db	48
   141  0037D8  31                 	db	49
   142  0037D9  32                 	db	50
   143  0037DA  33                 	db	51
   144  0037DB  34                 	db	52
   145  0037DC  35                 	db	53
   146  0037DD  36                 	db	54
   147  0037DE  37                 	db	55
   148  0037DF  38                 	db	56
   149  0037E0  39                 	db	57
   150  0037E1  00                 	db	0
   151                           
   152                           ;initializer for _customIndex
   153  0037E2  FFFF               	dw	65535
   154                           
   155                           	psect	smallconst
   156  001000                     __psmallconst:
   157                           	callstack 0
   158  001000  00                 	db	0
   159  001001  9E26               	dw	40486
   160  001003  3E78               	dw	15992
   161  001005                     __end_of_Lg4:
   162                           	callstack 0
   163  001005  E9EE               	dw	59886
   164  001007  3E91               	dw	16017
   165  001009                     __end_of_Lg3:
   166                           	callstack 0
   167  001009  CE13               	dw	52755
   168  00100B  3ECC               	dw	16076
   169  00100D                     __end_of_Lg2:
   170                           	callstack 0
   171  00100D  AAAA               	dw	43690
   172  00100F  3F2A               	dw	16170
   173  001011                     __end_of_Lg1:
   174                           	callstack 0
   175  001011  9AD4               	dw	39636
   176  001013  B938               	dw	47416
   177  001015                     __end_of_ivln2lo:
   178                           	callstack 0
   179  001015  B000               	dw	45056
   180  001017  3FB8               	dw	16312
   181  001019                     __end_of_ivln2hi:
   182                           	callstack 0
   183  0000                     _RCONbits	set	4048
   184  0000                     _IPR1bits	set	3999
   185  0000                     _INTCONbits	set	4082
   186  0000                     _PIE1bits	set	3997
   187  0000                     _PORTEbits	set	3972
   188  0000                     _TRISC	set	3988
   189  0000                     _TRISA	set	3986
   190  0000                     _LATE	set	3981
   191  0000                     _TRISE	set	3990
   192  0000                     _TRISJ	set	3994
   193  0000                     _LATD	set	3980
   194  0000                     _LATC	set	3979
   195  0000                     _LATB	set	3978
   196  0000                     _LATA	set	3977
   197  0000                     _PORTD	set	3971
   198  0000                     _ADCON2	set	4032
   199  0000                     _ADCON1	set	4033
   200  0000                     _ADCON0	set	4034
   201  0000                     _TRISD	set	3989
   202  0000                     _TRISB	set	3987
   203  0000                     _TRISH	set	3993
   204  0000                     _T1CON	set	4045
   205  0000                     _TMR1L	set	4046
   206  0000                     _TMR1H	set	4047
   207  0000                     _LATJ	set	3985
   208  0000                     _LATH	set	3984
   209  0000                     _PORTBbits	set	3969
   210  0000                     _ADRESL	set	4035
   211  0000                     _ADRESH	set	4036
   212  0000                     _ADCON0bits	set	4034
   213  0000                     _PIR1bits	set	3998
   214  0000                     _GODONE	set	32273
   215  001019  00                 	db	0	; dummy byte at the end
   216  0000                     
   217                           ; #config settings
   218                           
   219                           	psect	cinit
   220  003670                     __pcinit:
   221                           	callstack 0
   222  003670                     start_initialization:
   223                           	callstack 0
   224  003670                     __initialization:
   225                           	callstack 0
   226                           
   227                           ; Initialize objects allocated to BANK1 (40 bytes)
   228                           ; load TBLPTR registers with __pidataBANK1
   229  003670  0EBC               	movlw	low __pidataBANK1
   230  003672  6EF6               	movwf	tblptrl,c
   231  003674  0E37               	movlw	high __pidataBANK1
   232  003676  6EF7               	movwf	tblptrh,c
   233  003678  0E00               	movlw	low (__pidataBANK1 shr (0+16))
   234  00367A  6EF8               	movwf	tblptru,c
   235  00367C  EE01  F076         	lfsr	0,__pdataBANK1
   236  003680  EE10 F028          	lfsr	1,40
   237  003684                     copy_data0:
   238  003684  0009               	tblrd		*+
   239  003686  CFF5 FFEE          	movff	tablat,postinc0
   240  00368A  50E5               	movf	postdec1,w,c
   241  00368C  50E1               	movf	fsr1l,w,c
   242  00368E  E1FA               	bnz	copy_data0
   243                           
   244                           ; Initialize objects allocated to BANK0 (18 bytes)
   245                           ; load TBLPTR registers with __pidataBANK0
   246  003690  0E06               	movlw	low __pidataBANK0
   247  003692  6EF6               	movwf	tblptrl,c
   248  003694  0E38               	movlw	high __pidataBANK0
   249  003696  6EF7               	movwf	tblptrh,c
   250  003698  0E00               	movlw	low (__pidataBANK0 shr (0+16))
   251  00369A  6EF8               	movwf	tblptru,c
   252  00369C  EE00  F0BE         	lfsr	0,__pdataBANK0
   253  0036A0  EE10 F012          	lfsr	1,18
   254  0036A4                     copy_data1:
   255  0036A4  0009               	tblrd		*+
   256  0036A6  CFF5 FFEE          	movff	tablat,postinc0
   257  0036AA  50E5               	movf	postdec1,w,c
   258  0036AC  50E1               	movf	fsr1l,w,c
   259  0036AE  E1FA               	bnz	copy_data1
   260                           
   261                           ; Clear objects allocated to BANK1 (118 bytes)
   262  0036B0  EE01  F000         	lfsr	0,__pbssBANK1
   263  0036B4  0E76               	movlw	118
   264  0036B6                     clear_0:
   265  0036B6  6AEE               	clrf	postinc0,c
   266  0036B8  06E8               	decf	wreg,f,c
   267  0036BA  E1FD               	bnz	clear_0
   268                           
   269                           ; Clear objects allocated to BANK0 (10 bytes)
   270  0036BC  EE00  F0D0         	lfsr	0,__pbssBANK0
   271  0036C0  0E0A               	movlw	10
   272  0036C2                     clear_1:
   273  0036C2  6AEE               	clrf	postinc0,c
   274  0036C4  06E8               	decf	wreg,f,c
   275  0036C6  E1FD               	bnz	clear_1
   276                           
   277                           ; Clear objects allocated to COMRAM (2 bytes)
   278  0036C8  6A5B               	clrf	(__pbssCOMRAM+1)& (0+255),c
   279  0036CA  6A5A               	clrf	__pbssCOMRAM& (0+255),c
   280  0036CC                     end_of_initialization:
   281                           	callstack 0
   282  0036CC                     __end_of__initialization:
   283                           	callstack 0
   284  0036CC  905C               	bcf	int$flags,0,c	;clear compiler interrupt flag (level 1)
   285  0036CE  925C               	bcf	int$flags,1,c	;clear compiler interrupt flag (level 2)
   286  0036D0  0E00               	movlw	low (__Lsmallconst shr (0+16))
   287  0036D2  6EF8               	movwf	tblptru,c
   288  0036D4  0E10               	movlw	high __Lsmallconst
   289  0036D6  6EF7               	movwf	tblptrh,c
   290  0036D8  0100               	movlb	0
   291  0036DA  EFFB  F01A         	goto	_main	;jump to C main() function
   292                           
   293                           	psect	bssCOMRAM
   294  00005A                     __pbssCOMRAM:
   295                           	callstack 0
   296  00005A                     _old_pos:
   297                           	callstack 0
   298  00005A                     	ds	2
   299                           
   300                           	psect	bssBANK0
   301  0000D0                     __pbssBANK0:
   302                           	callstack 0
   303  0000D0                     log2f@F472:
   304                           	callstack 0
   305  0000D0                     	ds	4
   306  0000D4                     _errno:
   307                           	callstack 0
   308  0000D4                     	ds	2
   309  0000D6                     _charNum:
   310                           	callstack 0
   311  0000D6                     	ds	2
   312  0000D8                     _col:
   313                           	callstack 0
   314  0000D8                     	ds	2
   315                           
   316                           	psect	dataBANK0
   317  0000BE                     __pdataBANK0:
   318                           	callstack 0
   319  0000BE                     _SSEGMENT_NUMBERS_GLYPHS:
   320                           	callstack 0
   321  0000BE                     	ds	16
   322  0000CE                     _row:
   323                           	callstack 0
   324  0000CE                     	ds	2
   325                           
   326                           	psect	bssBANK1
   327  000100                     __pbssBANK1:
   328                           	callstack 0
   329  000100                     _customChars:
   330                           	callstack 0
   331  000100                     	ds	64
   332  000140                     _custom_sentence:
   333                           	callstack 0
   334  000140                     	ds	32
   335  000160                     _sentence:
   336                           	callstack 0
   337  000160                     	ds	16
   338  000170                     _flag:
   339                           	callstack 0
   340  000170                     	ds	2
   341  000172                     _result:
   342                           	callstack 0
   343  000172                     	ds	2
   344  000174                     _currentIndex:
   345                           	callstack 0
   346  000174                     	ds	2
   347                           
   348                           	psect	dataBANK1
   349  000176                     __pdataBANK1:
   350                           	callstack 0
   351  000176                     _PREDEFINED:
   352                           	callstack 0
   353  000176                     	ds	38
   354  00019C                     _customIndex:
   355                           	callstack 0
   356  00019C                     	ds	2
   357                           
   358                           	psect	cstackBANK1
   359  00019E                     __pcstackBANK1:
   360                           	callstack 0
   361  00019E                     ?___awdiv:
   362                           	callstack 0
   363  00019E                     SendBusContents@data:
   364                           	callstack 0
   365  00019E                     ___awdiv@dividend:
   366                           	callstack 0
   367                           
   368                           ; 2 bytes @ 0x0
   369  00019E                     	ds	1
   370  00019F                     ??_TSM:
   371  00019F                     ??_InitLCD:
   372  00019F                     ??_LAT_to_Arr:
   373                           
   374                           ; 1 bytes @ 0x1
   375  00019F                     	ds	1
   376  0001A0                     ___awdiv@divisor:
   377                           	callstack 0
   378                           
   379                           ; 2 bytes @ 0x2
   380  0001A0                     	ds	1
   381  0001A1                     TSM@tmp2:
   382                           	callstack 0
   383                           
   384                           ; 2 bytes @ 0x3
   385  0001A1                     	ds	1
   386  0001A2                     ___awdiv@counter:
   387                           	callstack 0
   388                           
   389                           ; 1 bytes @ 0x4
   390  0001A2                     	ds	1
   391  0001A3                     TSM@tmp:
   392                           	callstack 0
   393  0001A3                     ___awdiv@sign:
   394                           	callstack 0
   395                           
   396                           ; 1 bytes @ 0x5
   397  0001A3                     	ds	1
   398  0001A4                     TSM@i:
   399                           	callstack 0
   400  0001A4                     ___awdiv@quotient:
   401                           	callstack 0
   402                           
   403                           ; 2 bytes @ 0x6
   404  0001A4                     	ds	1
   405  0001A5                     LAT_to_Arr@i:
   406                           	callstack 0
   407                           
   408                           ; 2 bytes @ 0x7
   409  0001A5                     	ds	1
   410  0001A6                     TSM@i_654:
   411                           	callstack 0
   412                           
   413                           ; 2 bytes @ 0x8
   414  0001A6                     	ds	1
   415  0001A7                     LAT_to_Arr@a_result:
   416                           	callstack 0
   417                           
   418                           ; 1 bytes @ 0x9
   419  0001A7                     	ds	1
   420  0001A8                     LAT_to_Arr@b_result:
   421                           	callstack 0
   422                           
   423                           ; 1 bytes @ 0xA
   424  0001A8                     	ds	1
   425  0001A9                     LAT_to_Arr@c_result:
   426                           	callstack 0
   427                           
   428                           ; 1 bytes @ 0xB
   429  0001A9                     	ds	1
   430  0001AA                     LAT_to_Arr@d_result:
   431                           	callstack 0
   432                           
   433                           ; 1 bytes @ 0xC
   434  0001AA                     	ds	1
   435  0001AB                     ??_TEM:
   436                           
   437                           ; 1 bytes @ 0xD
   438  0001AB                     	ds	5
   439  0001B0                     TEM@charSelect:
   440                           	callstack 0
   441                           
   442                           ; 2 bytes @ 0x12
   443  0001B0                     	ds	2
   444  0001B2                     TEM@pressed:
   445                           	callstack 0
   446                           
   447                           ; 2 bytes @ 0x14
   448  0001B2                     	ds	2
   449  0001B4                     main@i:
   450                           	callstack 0
   451                           
   452                           ; 2 bytes @ 0x16
   453  0001B4                     	ds	2
   454                           
   455                           	psect	cstackBANK0
   456  000060                     __pcstackBANK0:
   457                           	callstack 0
   458  000060                     log2f@R:
   459                           	callstack 0
   460                           
   461                           ; 4 bytes @ 0x0
   462  000060                     	ds	4
   463  000064                     log2f@t1:
   464                           	callstack 0
   465                           
   466                           ; 4 bytes @ 0x4
   467  000064                     	ds	4
   468  000068                     log2f@t2:
   469                           	callstack 0
   470                           
   471                           ; 4 bytes @ 0x8
   472  000068                     	ds	4
   473  00006C                     _log2f$1349:
   474                           	callstack 0
   475                           
   476                           ; 4 bytes @ 0xC
   477  00006C                     	ds	4
   478  000070                     _log2f$1350:
   479                           	callstack 0
   480                           
   481                           ; 4 bytes @ 0x10
   482  000070                     	ds	4
   483  000074                     _log2f$1352:
   484                           	callstack 0
   485                           
   486                           ; 4 bytes @ 0x14
   487  000074                     	ds	4
   488  000078                     _log2f$1353:
   489                           	callstack 0
   490                           
   491                           ; 4 bytes @ 0x18
   492  000078                     	ds	4
   493  00007C                     log2f@k:
   494                           	callstack 0
   495                           
   496                           ; 2 bytes @ 0x1C
   497  00007C                     	ds	2
   498  00007E                     log2f@lo:
   499                           	callstack 0
   500                           
   501                           ; 4 bytes @ 0x1E
   502  00007E                     	ds	4
   503  000082                     _log2f$1351:
   504                           	callstack 0
   505                           
   506                           ; 4 bytes @ 0x22
   507  000082                     	ds	4
   508  000086                     log2f@hfsq:
   509                           	callstack 0
   510                           
   511                           ; 4 bytes @ 0x26
   512  000086                     	ds	4
   513  00008A                     log2f@s:
   514                           	callstack 0
   515                           
   516                           ; 4 bytes @ 0x2A
   517  00008A                     	ds	4
   518  00008E                     log2f@z:
   519                           	callstack 0
   520                           
   521                           ; 4 bytes @ 0x2E
   522  00008E                     	ds	4
   523  000092                     log2f@w:
   524                           	callstack 0
   525                           
   526                           ; 4 bytes @ 0x32
   527  000092                     	ds	4
   528  000096                     _log2f$1348:
   529                           	callstack 0
   530                           
   531                           ; 4 bytes @ 0x36
   532  000096                     	ds	4
   533  00009A                     log2f@hi:
   534                           	callstack 0
   535                           
   536                           ; 4 bytes @ 0x3A
   537  00009A                     	ds	4
   538  00009E                     log2f@u:
   539                           	callstack 0
   540                           
   541                           ; 4 bytes @ 0x3E
   542  00009E                     	ds	4
   543  0000A2                     log2f@f:
   544                           	callstack 0
   545                           
   546                           ; 4 bytes @ 0x42
   547  0000A2                     	ds	4
   548  0000A6                     log2f@ix:
   549                           	callstack 0
   550                           
   551                           ; 4 bytes @ 0x46
   552  0000A6                     	ds	4
   553  0000AA                     ?___fltol:
   554                           	callstack 0
   555  0000AA                     ___fltol@f1:
   556                           	callstack 0
   557                           
   558                           ; 4 bytes @ 0x4A
   559  0000AA                     	ds	4
   560  0000AE                     ??___fltol:
   561                           
   562                           ; 1 bytes @ 0x4E
   563  0000AE                     	ds	4
   564  0000B2                     ??_seven_segment:
   565                           
   566                           ; 1 bytes @ 0x52
   567  0000B2                     	ds	1
   568  0000B3                     _seven_segment$1347:
   569                           	callstack 0
   570                           
   571                           ; 4 bytes @ 0x53
   572  0000B3                     	ds	4
   573  0000B7                     ??_lowPriorityISR:
   574                           
   575                           ; 1 bytes @ 0x57
   576  0000B7                     	ds	7
   577                           
   578                           	psect	cstackCOMRAM
   579  000001                     __pcstackCOMRAM:
   580                           	callstack 0
   581  000001                     i2SendBusContents@data:
   582                           	callstack 0
   583                           
   584                           ; 1 bytes @ 0x0
   585  000001                     	ds	1
   586  000002                     ??_highPriorityISR:
   587                           
   588                           ; 1 bytes @ 0x1
   589  000002                     	ds	2
   590  000004                     ?___flmul:
   591                           	callstack 0
   592  000004                     ?___xxtofl:
   593                           	callstack 0
   594  000004                     ___flmul@b:
   595                           	callstack 0
   596  000004                     ___xxtofl@val:
   597                           	callstack 0
   598                           
   599                           ; 4 bytes @ 0x3
   600  000004                     	ds	4
   601  000008                     ??___xxtofl:
   602  000008                     ___flmul@a:
   603                           	callstack 0
   604                           
   605                           ; 4 bytes @ 0x7
   606  000008                     	ds	4
   607  00000C                     ??___flmul:
   608  00000C                     ___xxtofl@sign:
   609                           	callstack 0
   610                           
   611                           ; 1 bytes @ 0xB
   612  00000C                     	ds	1
   613  00000D                     ___xxtofl@exp:
   614                           	callstack 0
   615                           
   616                           ; 1 bytes @ 0xC
   617  00000D                     	ds	1
   618  00000E                     ___xxtofl@arg:
   619                           	callstack 0
   620                           
   621                           ; 4 bytes @ 0xD
   622  00000E                     	ds	2
   623  000010                     ___flmul@sign:
   624                           	callstack 0
   625                           
   626                           ; 1 bytes @ 0xF
   627  000010                     	ds	1
   628  000011                     ___flmul@grs:
   629                           	callstack 0
   630                           
   631                           ; 4 bytes @ 0x10
   632  000011                     	ds	4
   633  000015                     ___flmul@aexp:
   634                           	callstack 0
   635                           
   636                           ; 1 bytes @ 0x14
   637  000015                     	ds	1
   638  000016                     ___flmul@bexp:
   639                           	callstack 0
   640                           
   641                           ; 1 bytes @ 0x15
   642  000016                     	ds	1
   643  000017                     ___flmul@prod:
   644                           	callstack 0
   645                           
   646                           ; 4 bytes @ 0x16
   647  000017                     	ds	4
   648  00001B                     ___flmul@temp:
   649                           	callstack 0
   650                           
   651                           ; 2 bytes @ 0x1A
   652  00001B                     	ds	2
   653  00001D                     ?___fladd:
   654                           	callstack 0
   655  00001D                     ___fladd@b:
   656                           	callstack 0
   657                           
   658                           ; 4 bytes @ 0x1C
   659  00001D                     	ds	4
   660  000021                     ___fladd@a:
   661                           	callstack 0
   662                           
   663                           ; 4 bytes @ 0x20
   664  000021                     	ds	4
   665  000025                     ??___fladd:
   666                           
   667                           ; 1 bytes @ 0x24
   668  000025                     	ds	4
   669  000029                     ___fladd@signs:
   670                           	callstack 0
   671                           
   672                           ; 1 bytes @ 0x28
   673  000029                     	ds	1
   674  00002A                     ___fladd@aexp:
   675                           	callstack 0
   676                           
   677                           ; 1 bytes @ 0x29
   678  00002A                     	ds	1
   679  00002B                     ___fladd@bexp:
   680                           	callstack 0
   681                           
   682                           ; 1 bytes @ 0x2A
   683  00002B                     	ds	1
   684  00002C                     ___fladd@grs:
   685                           	callstack 0
   686                           
   687                           ; 1 bytes @ 0x2B
   688  00002C                     	ds	1
   689  00002D                     ?___flsub:
   690                           	callstack 0
   691  00002D                     ___flsub@b:
   692                           	callstack 0
   693                           
   694                           ; 4 bytes @ 0x2C
   695  00002D                     	ds	4
   696  000031                     ___flsub@a:
   697                           	callstack 0
   698                           
   699                           ; 4 bytes @ 0x30
   700  000031                     	ds	4
   701  000035                     ?___fldiv:
   702                           	callstack 0
   703  000035                     ___fldiv@b:
   704                           	callstack 0
   705                           
   706                           ; 4 bytes @ 0x34
   707  000035                     	ds	4
   708  000039                     ___fldiv@a:
   709                           	callstack 0
   710                           
   711                           ; 4 bytes @ 0x38
   712  000039                     	ds	4
   713  00003D                     ??___fldiv:
   714                           
   715                           ; 1 bytes @ 0x3C
   716  00003D                     	ds	4
   717  000041                     ___fldiv@rem:
   718                           	callstack 0
   719                           
   720                           ; 4 bytes @ 0x40
   721  000041                     	ds	4
   722  000045                     ___fldiv@sign:
   723                           	callstack 0
   724                           
   725                           ; 1 bytes @ 0x44
   726  000045                     	ds	1
   727  000046                     ___fldiv@new_exp:
   728                           	callstack 0
   729                           
   730                           ; 2 bytes @ 0x45
   731  000046                     	ds	2
   732  000048                     ___fldiv@grs:
   733                           	callstack 0
   734                           
   735                           ; 4 bytes @ 0x47
   736  000048                     	ds	4
   737  00004C                     ___fldiv@bexp:
   738                           	callstack 0
   739                           
   740                           ; 1 bytes @ 0x4B
   741  00004C                     	ds	1
   742  00004D                     ___fldiv@aexp:
   743                           	callstack 0
   744                           
   745                           ; 1 bytes @ 0x4C
   746  00004D                     	ds	1
   747  00004E                     ?_log2f:
   748                           	callstack 0
   749  00004E                     log2f@x:
   750                           	callstack 0
   751                           
   752                           ; 4 bytes @ 0x4D
   753  00004E                     	ds	4
   754  000052                     ??_log2f:
   755                           
   756                           ; 1 bytes @ 0x51
   757  000052                     	ds	6
   758  000058                     ___fltol@sign1:
   759                           	callstack 0
   760                           
   761                           ; 1 bytes @ 0x57
   762  000058                     	ds	1
   763  000059                     ___fltol@exp1:
   764                           	callstack 0
   765                           
   766                           ; 1 bytes @ 0x58
   767  000059                     	ds	1
   768                           
   769 ;;
   770 ;;Main: autosize = 0, tempsize = 0, incstack = 0, save=0
   771 ;;
   772 ;; *************** function _main *****************
   773 ;; Defined at:
   774 ;;		line 555 in file "../../Desktop/336/the3/the3.c"
   775 ;; Parameters:    Size  Location     Type
   776 ;;		None
   777 ;; Auto vars:     Size  Location     Type
   778 ;;  i               2   22[BANK1 ] int 
   779 ;; Return value:  Size  Location     Type
   780 ;;                  1    wreg      void 
   781 ;; Registers used:
   782 ;;		wreg, fsr1l, fsr1h, fsr2l, fsr2h, status,2, status,0, prodl, prodh, cstack
   783 ;; Tracked objects:
   784 ;;		On entry : 0/0
   785 ;;		On exit  : 0/0
   786 ;;		Unchanged: 0/0
   787 ;; Data sizes:     COMRAM   BANK0   BANK1   BANK2   BANK3   BANK4   BANK5   BANK6   BANK7   BANK8   BANK9  BANK10  BANK1
      +1  BANK12  BANK13  BANK14  BANK15
   788 ;;      Params:         0       0       0       0       0       0       0       0       0       0       0       0       
      +0       0       0       0       0
   789 ;;      Locals:         0       0       2       0       0       0       0       0       0       0       0       0       
      +0       0       0       0       0
   790 ;;      Temps:          0       0       0       0       0       0       0       0       0       0       0       0       
      +0       0       0       0       0
   791 ;;      Totals:         0       0       2       0       0       0       0       0       0       0       0       0       
      +0       0       0       0       0
   792 ;;Total ram usage:        2 bytes
   793 ;; Hardware stack levels required when called:   13
   794 ;; This function calls:
   795 ;;		_TEM
   796 ;;		_init
   797 ;; This function is called by:
   798 ;;		Startup code after reset
   799 ;; This function uses a non-reentrant model
   800 ;;
   801                           
   802                           	psect	text0
   803  0035F6                     __ptext0:
   804                           	callstack 0
   805  0035F6                     _main:
   806                           	callstack 18
   807  0035F6                     
   808                           ;../../Desktop/336/the3/the3.c: 556:     init();
   809  0035F6  EC92  F01B         	call	_init	;wreg free
   810  0035FA                     
   811                           ;../../Desktop/336/the3/the3.c: 558:     for(int i=0;i<16;i++){
   812  0035FA  0E00               	movlw	0
   813  0035FC  0101               	movlb	1	; () banked
   814  0035FE  6FB5               	movwf	(main@i+1)& (0+255),b
   815  003600  0E00               	movlw	0
   816  003602  6FB4               	movwf	main@i& (0+255),b
   817  003604                     l3501:
   818                           
   819                           ; BSR set to: 1
   820                           ;../../Desktop/336/the3/the3.c: 559:         sentence[i]=' ';
   821  003604  0E60               	movlw	low _sentence
   822  003606  25B4               	addwf	main@i& (0+255),w,b
   823  003608  6ED9               	movwf	fsr2l,c
   824  00360A  0E01               	movlw	high _sentence
   825  00360C  21B5               	addwfc	(main@i+1)& (0+255),w,b
   826  00360E  6EDA               	movwf	fsr2h,c
   827  003610  0E20               	movlw	32
   828  003612  6EDF               	movwf	indf2,c
   829                           
   830                           ;../../Desktop/336/the3/the3.c: 560:         custom_sentence[i]=-1;
   831  003614  90D8               	bcf	status,0,c
   832  003616  35B4               	rlcf	main@i& (0+255),w,b
   833  003618  6ED9               	movwf	fsr2l,c
   834  00361A  35B5               	rlcf	(main@i+1)& (0+255),w,b
   835  00361C  6EDA               	movwf	fsr2h,c
   836  00361E  0E40               	movlw	low _custom_sentence
   837  003620  26D9               	addwf	fsr2l,f,c
   838  003622  0E01               	movlw	high _custom_sentence
   839  003624  22DA               	addwfc	fsr2h,f,c
   840  003626  0EFF               	movlw	255
   841  003628  6EDE               	movwf	postinc2,c
   842  00362A  0EFF               	movlw	255
   843  00362C  6EDD               	movwf	postdec2,c
   844  00362E                     
   845                           ; BSR set to: 1
   846                           ;../../Desktop/336/the3/the3.c: 561:     }
   847  00362E  4BB4               	infsnz	main@i& (0+255),f,b
   848  003630  2BB5               	incf	(main@i+1)& (0+255),f,b
   849  003632                     
   850                           ; BSR set to: 1
   851  003632  BFB5               	btfsc	(main@i+1)& (0+255),7,b
   852  003634  EF25  F01B         	goto	u3501
   853  003638  51B5               	movf	(main@i+1)& (0+255),w,b
   854  00363A  E109               	bnz	u3500
   855  00363C  0E10               	movlw	16
   856  00363E  5DB4               	subwf	main@i& (0+255),w,b
   857  003640  A0D8               	btfss	status,0,c
   858  003642  EF25  F01B         	goto	u3501
   859  003646  EF27  F01B         	goto	u3500
   860  00364A                     u3501:
   861  00364A  EF02  F01B         	goto	l3501
   862  00364E                     u3500:
   863  00364E                     
   864                           ; BSR set to: 1
   865                           ;../../Desktop/336/the3/the3.c: 563:     PIR1bits.ADIF = 0;
   866  00364E  9C9E               	bcf	158,6,c	;volatile
   867                           
   868                           ;../../Desktop/336/the3/the3.c: 564:     PIE1bits.ADIE = 1;
   869  003650  8C9D               	bsf	157,6,c	;volatile
   870                           
   871                           ;../../Desktop/336/the3/the3.c: 566:     INTCONbits.PEIE = 1;
   872  003652  8CF2               	bsf	242,6,c	;volatile
   873                           
   874                           ;../../Desktop/336/the3/the3.c: 568:     INTCONbits.GIE = 1;
   875  003654  8EF2               	bsf	242,7,c	;volatile
   876                           
   877                           ;../../Desktop/336/the3/the3.c: 569:     INTCONbits.PEIE = 1;
   878  003656  8CF2               	bsf	242,6,c	;volatile
   879                           
   880                           ;../../Desktop/336/the3/the3.c: 571:     IPR1bits.ADIP = 1;
   881  003658  8C9F               	bsf	159,6,c	;volatile
   882                           
   883                           ;../../Desktop/336/the3/the3.c: 573:     IPR1bits.TMR1IP = 0;
   884  00365A  909F               	bcf	159,0,c	;volatile
   885                           
   886                           ;../../Desktop/336/the3/the3.c: 574:  RCONbits.IPEN = 1;
   887  00365C  8ED0               	bsf	208,7,c	;volatile
   888                           
   889                           ;../../Desktop/336/the3/the3.c: 575:  INTCONbits.GIEH = 1;
   890  00365E  8EF2               	bsf	242,7,c	;volatile
   891                           
   892                           ;../../Desktop/336/the3/the3.c: 576:  INTCONbits.GIEL = 1;
   893  003660  8CF2               	bsf	242,6,c	;volatile
   894                           
   895                           ;../../Desktop/336/the3/the3.c: 577:  PIE1bits.TMR1IE = 1;
   896  003662  809D               	bsf	157,0,c	;volatile
   897  003664                     l3507:
   898                           
   899                           ;../../Desktop/336/the3/the3.c: 582:         TEM();
   900  003664  EC73  F014         	call	_TEM	;wreg free
   901  003668  EF32  F01B         	goto	l3507
   902  00366C  EF34  F000         	goto	start
   903  003670                     __end_of_main:
   904                           	callstack 0
   905                           
   906 ;; *************** function _init *****************
   907 ;; Defined at:
   908 ;;		line 279 in file "../../Desktop/336/the3/the3.c"
   909 ;; Parameters:    Size  Location     Type
   910 ;;		None
   911 ;; Auto vars:     Size  Location     Type
   912 ;;		None
   913 ;; Return value:  Size  Location     Type
   914 ;;                  1    wreg      void 
   915 ;; Registers used:
   916 ;;		wreg, status,2, status,0, cstack
   917 ;; Tracked objects:
   918 ;;		On entry : 0/0
   919 ;;		On exit  : 0/0
   920 ;;		Unchanged: 0/0
   921 ;; Data sizes:     COMRAM   BANK0   BANK1   BANK2   BANK3   BANK4   BANK5   BANK6   BANK7   BANK8   BANK9  BANK10  BANK1
      +1  BANK12  BANK13  BANK14  BANK15
   922 ;;      Params:         0       0       0       0       0       0       0       0       0       0       0       0       
      +0       0       0       0       0
   923 ;;      Locals:         0       0       0       0       0       0       0       0       0       0       0       0       
      +0       0       0       0       0
   924 ;;      Temps:          0       0       0       0       0       0       0       0       0       0       0       0       
      +0       0       0       0       0
   925 ;;      Totals:         0       0       0       0       0       0       0       0       0       0       0       0       
      +0       0       0       0       0
   926 ;;Total ram usage:        0 bytes
   927 ;; Hardware stack levels used:    1
   928 ;; Hardware stack levels required when called:   11
   929 ;; This function calls:
   930 ;;		_InitLCD
   931 ;;		_adc_init
   932 ;;		_tmr1_init
   933 ;; This function is called by:
   934 ;;		_main
   935 ;; This function uses a non-reentrant model
   936 ;;
   937                           
   938                           	psect	text1
   939  003724                     __ptext1:
   940                           	callstack 0
   941  003724                     _init:
   942                           	callstack 19
   943  003724                     
   944                           ;../../Desktop/336/the3/the3.c: 280:     TRISC=0x00;
   945  003724  EC1E  F01C         	call	_tmr1_init	;wreg free
   946                           
   947                           ;../../Desktop/336/the3/the3.c: 281:     LATC=0x00;
   948  003728  ECF2  F01B         	call	_adc_init	;wreg free
   949  00372C                     
   950                           ;../../Desktop/336/the3/the3.c: 282:     TRISD=0x00;
   951  00372C  ECB9  F01A         	call	_InitLCD	;wreg free
   952  003730                     
   953                           ;../../Desktop/336/the3/the3.c: 284: 
   954  003730  0E00               	movlw	0
   955  003732  6E9A               	movwf	154,c	;volatile
   956  003734                     
   957                           ;../../Desktop/336/the3/the3.c: 286: 
   958  003734  68CF               	setf	207,c	;volatile
   959  003736                     
   960                           ;../../Desktop/336/the3/the3.c: 287: 
   961  003736  0EFA               	movlw	250
   962  003738  6ECE               	movwf	206,c	;volatile
   963  00373A                     
   964                           ;../../Desktop/336/the3/the3.c: 289:     int charSelect = 0;
   965  00373A  6896               	setf	150,c	;volatile
   966  00373C                     
   967                           ;../../Desktop/336/the3/the3.c: 290:     int pressed=0;
   968  00373C  0E00               	movlw	0
   969  00373E  6E8D               	movwf	141,c	;volatile
   970  003740                     
   971                           ;../../Desktop/336/the3/the3.c: 292:         LATD=0x00;
   972  003740  0E00               	movlw	0
   973  003742  6E92               	movwf	146,c	;volatile
   974  003744                     
   975                           ;../../Desktop/336/the3/the3.c: 293:         GODONE = 1;
   976  003744  0E00               	movlw	0
   977  003746  6E89               	movwf	137,c	;volatile
   978  003748                     
   979                           ;../../Desktop/336/the3/the3.c: 294: 
   980  003748  0E00               	movlw	0
   981  00374A  6E93               	movwf	147,c	;volatile
   982  00374C                     
   983                           ;../../Desktop/336/the3/the3.c: 295:         if(PORTEbits.RE4 && charNum!=8){
   984  00374C  0E00               	movlw	0
   985  00374E  6E8A               	movwf	138,c	;volatile
   986  003750                     
   987                           ;../../Desktop/336/the3/the3.c: 296:             while(PORTEbits.RE4);
   988  003750  0E00               	movlw	0
   989  003752  6E94               	movwf	148,c	;volatile
   990  003754                     
   991                           ;../../Desktop/336/the3/the3.c: 297:             CDM();
   992  003754  0E00               	movlw	0
   993  003756  6E8B               	movwf	139,c	;volatile
   994  003758                     
   995                           ;../../Desktop/336/the3/the3.c: 298:         }
   996  003758  0E00               	movlw	0
   997  00375A  6E95               	movwf	149,c	;volatile
   998  00375C                     
   999                           ;../../Desktop/336/the3/the3.c: 299: 
  1000  00375C  0E00               	movlw	0
  1001  00375E  6E8C               	movwf	140,c	;volatile
  1002  003760  0012               	return		;funcret
  1003  003762                     __end_of_init:
  1004                           	callstack 0
  1005                           
  1006 ;; *************** function _tmr1_init *****************
  1007 ;; Defined at:
  1008 ;;		line 105 in file "../../Desktop/336/the3/the3.c"
  1009 ;; Parameters:    Size  Location     Type
  1010 ;;		None
  1011 ;; Auto vars:     Size  Location     Type
  1012 ;;		None
  1013 ;; Return value:  Size  Location     Type
  1014 ;;                  1    wreg      void 
  1015 ;; Registers used:
  1016 ;;		wreg, status,2
  1017 ;; Tracked objects:
  1018 ;;		On entry : 0/0
  1019 ;;		On exit  : 0/0
  1020 ;;		Unchanged: 0/0
  1021 ;; Data sizes:     COMRAM   BANK0   BANK1   BANK2   BANK3   BANK4   BANK5   BANK6   BANK7   BANK8   BANK9  BANK10  BANK1
      +1  BANK12  BANK13  BANK14  BANK15
  1022 ;;      Params:         0       0       0       0       0       0       0       0       0       0       0       0       
      +0       0       0       0       0
  1023 ;;      Locals:         0       0       0       0       0       0       0       0       0       0       0       0       
      +0       0       0       0       0
  1024 ;;      Temps:          0       0       0       0       0       0       0       0       0       0       0       0       
      +0       0       0       0       0
  1025 ;;      Totals:         0       0       0       0       0       0       0       0       0       0       0       0       
      +0       0       0       0       0
  1026 ;;Total ram usage:        0 bytes
  1027 ;; Hardware stack levels used:    1
  1028 ;; Hardware stack levels required when called:    8
  1029 ;; This function calls:
  1030 ;;		Nothing
  1031 ;; This function is called by:
  1032 ;;		_init
  1033 ;; This function uses a non-reentrant model
  1034 ;;
  1035                           
  1036                           	psect	text2
  1037  00383C                     __ptext2:
  1038                           	callstack 0
  1039  00383C                     _tmr1_init:
  1040                           	callstack 21
  1041  00383C                     
  1042                           ;../../Desktop/336/the3/the3.c: 106: }
  1043  00383C  0E75               	movlw	117
  1044  00383E  6ECF               	movwf	207,c	;volatile
  1045                           
  1046                           ;../../Desktop/336/the3/the3.c: 107: 
  1047  003840  0E30               	movlw	48
  1048  003842  6ECE               	movwf	206,c	;volatile
  1049                           
  1050                           ;../../Desktop/336/the3/the3.c: 108: void Pulse(void){
  1051  003844  0EC9               	movlw	201
  1052  003846  6ECD               	movwf	205,c	;volatile
  1053  003848  0012               	return		;funcret
  1054  00384A                     __end_of_tmr1_init:
  1055                           	callstack 0
  1056                           
  1057 ;; *************** function _adc_init *****************
  1058 ;; Defined at:
  1059 ;;		line 111 in file "../../Desktop/336/the3/the3.c"
  1060 ;; Parameters:    Size  Location     Type
  1061 ;;		None
  1062 ;; Auto vars:     Size  Location     Type
  1063 ;;		None
  1064 ;; Return value:  Size  Location     Type
  1065 ;;                  1    wreg      void 
  1066 ;; Registers used:
  1067 ;;		wreg, status,2
  1068 ;; Tracked objects:
  1069 ;;		On entry : 0/0
  1070 ;;		On exit  : 0/0
  1071 ;;		Unchanged: 0/0
  1072 ;; Data sizes:     COMRAM   BANK0   BANK1   BANK2   BANK3   BANK4   BANK5   BANK6   BANK7   BANK8   BANK9  BANK10  BANK1
      +1  BANK12  BANK13  BANK14  BANK15
  1073 ;;      Params:         0       0       0       0       0       0       0       0       0       0       0       0       
      +0       0       0       0       0
  1074 ;;      Locals:         0       0       0       0       0       0       0       0       0       0       0       0       
      +0       0       0       0       0
  1075 ;;      Temps:          0       0       0       0       0       0       0       0       0       0       0       0       
      +0       0       0       0       0
  1076 ;;      Totals:         0       0       0       0       0       0       0       0       0       0       0       0       
      +0       0       0       0       0
  1077 ;;Total ram usage:        0 bytes
  1078 ;; Hardware stack levels used:    1
  1079 ;; Hardware stack levels required when called:    8
  1080 ;; This function calls:
  1081 ;;		Nothing
  1082 ;; This function is called by:
  1083 ;;		_init
  1084 ;; This function uses a non-reentrant model
  1085 ;;
  1086                           
  1087                           	psect	text3
  1088  0037E4                     __ptext3:
  1089                           	callstack 0
  1090  0037E4                     _adc_init:
  1091                           	callstack 21
  1092  0037E4                     
  1093                           ;../../Desktop/336/the3/the3.c: 112:     _delay((unsigned long)((30)*(40000000/4000000.0
      +                          )));
  1094  0037E4  0E10               	movlw	16
  1095  0037E6  6E99               	movwf	153,c	;volatile
  1096                           
  1097                           ;../../Desktop/336/the3/the3.c: 114: 
  1098  0037E8  0E00               	movlw	0
  1099  0037EA  6E93               	movwf	147,c	;volatile
  1100                           
  1101                           ;../../Desktop/336/the3/the3.c: 115: 
  1102  0037EC  0E00               	movlw	0
  1103  0037EE  6E95               	movwf	149,c	;volatile
  1104                           
  1105                           ;../../Desktop/336/the3/the3.c: 117:     _delay((unsigned long)((20)*(40000000/4000.0)))
      +                          ;
  1106  0037F0  0E31               	movlw	49
  1107  0037F2  6EC2               	movwf	194,c	;volatile
  1108                           
  1109                           ;../../Desktop/336/the3/the3.c: 118:     PORTD = 0x30;
  1110  0037F4  0E00               	movlw	0
  1111  0037F6  6EC1               	movwf	193,c	;volatile
  1112                           
  1113                           ;../../Desktop/336/the3/the3.c: 119:     Pulse();
  1114  0037F8  0EAA               	movlw	170
  1115  0037FA  6EC0               	movwf	192,c	;volatile
  1116                           
  1117                           ;../../Desktop/336/the3/the3.c: 120: 
  1118  0037FC  0E00               	movlw	0
  1119  0037FE  6EC4               	movwf	196,c	;volatile
  1120                           
  1121                           ;../../Desktop/336/the3/the3.c: 121:     _delay((unsigned long)((6)*(40000000/4000.0)));
  1122  003800  0E00               	movlw	0
  1123  003802  6EC3               	movwf	195,c	;volatile
  1124  003804  0012               	return		;funcret
  1125  003806                     __end_of_adc_init:
  1126                           	callstack 0
  1127                           
  1128 ;; *************** function _InitLCD *****************
  1129 ;; Defined at:
  1130 ;;		line 132 in file "../../Desktop/336/the3/the3.c"
  1131 ;; Parameters:    Size  Location     Type
  1132 ;;		None
  1133 ;; Auto vars:     Size  Location     Type
  1134 ;;		None
  1135 ;; Return value:  Size  Location     Type
  1136 ;;                  1    wreg      void 
  1137 ;; Registers used:
  1138 ;;		wreg, status,2, status,0, cstack
  1139 ;; Tracked objects:
  1140 ;;		On entry : 0/0
  1141 ;;		On exit  : 0/0
  1142 ;;		Unchanged: 0/0
  1143 ;; Data sizes:     COMRAM   BANK0   BANK1   BANK2   BANK3   BANK4   BANK5   BANK6   BANK7   BANK8   BANK9  BANK10  BANK1
      +1  BANK12  BANK13  BANK14  BANK15
  1144 ;;      Params:         0       0       0       0       0       0       0       0       0       0       0       0       
      +0       0       0       0       0
  1145 ;;      Locals:         0       0       0       0       0       0       0       0       0       0       0       0       
      +0       0       0       0       0
  1146 ;;      Temps:          0       0       2       0       0       0       0       0       0       0       0       0       
      +0       0       0       0       0
  1147 ;;      Totals:         0       0       2       0       0       0       0       0       0       0       0       0       
      +0       0       0       0       0
  1148 ;;Total ram usage:        2 bytes
  1149 ;; Hardware stack levels used:    1
  1150 ;; Hardware stack levels required when called:   10
  1151 ;; This function calls:
  1152 ;;		_Pulse
  1153 ;;		_SendBusContents
  1154 ;; This function is called by:
  1155 ;;		_init
  1156 ;; This function uses a non-reentrant model
  1157 ;;
  1158                           
  1159                           	psect	text4
  1160  003572                     __ptext4:
  1161                           	callstack 0
  1162  003572                     _InitLCD:
  1163                           	callstack 19
  1164  003572                     
  1165                           ;../../Desktop/336/the3/the3.c: 133:     SendBusContents(0x2C);
  1166  003572  0E02               	movlw	2
  1167  003574  0101               	movlb	1	; () banked
  1168  003576  6FA0               	movwf	(??_InitLCD+1)& (0+255),b
  1169  003578  0E04               	movlw	4
  1170  00357A  6F9F               	movwf	??_InitLCD& (0+255),b
  1171  00357C  0EBA               	movlw	186
  1172  00357E                     u3597:
  1173  00357E  2EE8               	decfsz	wreg,f,c
  1174  003580  D7FE               	bra	u3597
  1175  003582  2F9F               	decfsz	??_InitLCD& (0+255),f,b
  1176  003584  D7FC               	bra	u3597
  1177  003586  2FA0               	decfsz	(??_InitLCD+1)& (0+255),f,b
  1178  003588  D7FA               	bra	u3597
  1179  00358A  F000               	nop	
  1180  00358C                     
  1181                           ;../../Desktop/336/the3/the3.c: 134:     SendBusContents(0x0E);
  1182  00358C  0E30               	movlw	48
  1183  00358E  6E83               	movwf	131,c	;volatile
  1184  003590                     
  1185                           ;../../Desktop/336/the3/the3.c: 135:     SendBusContents(0x01);
  1186  003590  EC0C  F01C         	call	_Pulse	;wreg free
  1187  003594                     
  1188                           ;../../Desktop/336/the3/the3.c: 137: 
  1189  003594  0E4E               	movlw	78
  1190  003596  0101               	movlb	1	; () banked
  1191  003598  6F9F               	movwf	??_InitLCD& (0+255),b
  1192  00359A  0EEB               	movlw	235
  1193  00359C                     u3607:
  1194  00359C  2EE8               	decfsz	wreg,f,c
  1195  00359E  D7FE               	bra	u3607
  1196  0035A0  2F9F               	decfsz	??_InitLCD& (0+255),f,b
  1197  0035A2  D7FC               	bra	u3607
  1198  0035A4                     
  1199                           ;../../Desktop/336/the3/the3.c: 138: void SendBusContents(uint8_t data){
  1200  0035A4  0E30               	movlw	48
  1201  0035A6  6E83               	movwf	131,c	;volatile
  1202                           
  1203                           ;../../Desktop/336/the3/the3.c: 139:   PORTD = PORTD & 0x0F;
  1204  0035A8  EC0C  F01C         	call	_Pulse	;wreg free
  1205  0035AC                     
  1206                           ;../../Desktop/336/the3/the3.c: 141:   Pulse();
  1207  0035AC  0E04               	movlw	4
  1208  0035AE  0101               	movlb	1	; () banked
  1209  0035B0  6F9F               	movwf	??_InitLCD& (0+255),b
  1210  0035B2  0EE4               	movlw	228
  1211  0035B4                     u3617:
  1212  0035B4  2EE8               	decfsz	wreg,f,c
  1213  0035B6  D7FE               	bra	u3617
  1214  0035B8  2F9F               	decfsz	??_InitLCD& (0+255),f,b
  1215  0035BA  D7FC               	bra	u3617
  1216  0035BC  F000               	nop	
  1217  0035BE                     
  1218                           ;../../Desktop/336/the3/the3.c: 142:   PORTD = PORTD & 0x0F;
  1219  0035BE  0E30               	movlw	48
  1220  0035C0  6E83               	movwf	131,c	;volatile
  1221  0035C2                     
  1222                           ;../../Desktop/336/the3/the3.c: 143:   PORTD = PORTD | ((data<<4)&0xF0);
  1223  0035C2  EC0C  F01C         	call	_Pulse	;wreg free
  1224  0035C6                     
  1225                           ;../../Desktop/336/the3/the3.c: 145: }
  1226  0035C6  0E1A               	movlw	26
  1227  0035C8  0101               	movlb	1	; () banked
  1228  0035CA  6F9F               	movwf	??_InitLCD& (0+255),b
  1229  0035CC  0EF8               	movlw	248
  1230  0035CE                     u3627:
  1231  0035CE  2EE8               	decfsz	wreg,f,c
  1232  0035D0  D7FE               	bra	u3627
  1233  0035D2  2F9F               	decfsz	??_InitLCD& (0+255),f,b
  1234  0035D4  D7FC               	bra	u3627
  1235  0035D6  F000               	nop	
  1236                           
  1237                           ;../../Desktop/336/the3/the3.c: 146: 
  1238  0035D8  0E20               	movlw	32
  1239  0035DA  6E83               	movwf	131,c	;volatile
  1240  0035DC                     
  1241                           ;../../Desktop/336/the3/the3.c: 147: void LAT_to_Arr(){
  1242  0035DC  EC0C  F01C         	call	_Pulse	;wreg free
  1243  0035E0                     
  1244                           ;../../Desktop/336/the3/the3.c: 148: 
  1245  0035E0  9481               	bcf	129,2,c	;volatile
  1246  0035E2                     
  1247                           ;../../Desktop/336/the3/the3.c: 149:     uint8_t custom_char[8];
  1248  0035E2  0E2C               	movlw	44
  1249  0035E4  ECB1  F01B         	call	_SendBusContents
  1250  0035E8                     
  1251                           ;../../Desktop/336/the3/the3.c: 150:     uint8_t a_result;
  1252  0035E8  0E0E               	movlw	14
  1253  0035EA  ECB1  F01B         	call	_SendBusContents
  1254  0035EE                     
  1255                           ;../../Desktop/336/the3/the3.c: 151:     uint8_t b_result;
  1256  0035EE  0E01               	movlw	1
  1257  0035F0  ECB1  F01B         	call	_SendBusContents
  1258  0035F4  0012               	return		;funcret
  1259  0035F6                     __end_of_InitLCD:
  1260                           	callstack 0
  1261                           
  1262 ;; *************** function _TEM *****************
  1263 ;; Defined at:
  1264 ;;		line 304 in file "../../Desktop/336/the3/the3.c"
  1265 ;; Parameters:    Size  Location     Type
  1266 ;;		None
  1267 ;; Auto vars:     Size  Location     Type
  1268 ;;  pressed         2   20[BANK1 ] int 
  1269 ;;  charSelect      2   18[BANK1 ] int 
  1270 ;; Return value:  Size  Location     Type
  1271 ;;                  1    wreg      void 
  1272 ;; Registers used:
  1273 ;;		wreg, fsr1l, fsr1h, fsr2l, fsr2h, status,2, status,0, prodl, prodh, cstack
  1274 ;; Tracked objects:
  1275 ;;		On entry : 0/0
  1276 ;;		On exit  : 0/0
  1277 ;;		Unchanged: 0/0
  1278 ;; Data sizes:     COMRAM   BANK0   BANK1   BANK2   BANK3   BANK4   BANK5   BANK6   BANK7   BANK8   BANK9  BANK10  BANK1
      +1  BANK12  BANK13  BANK14  BANK15
  1279 ;;      Params:         0       0       0       0       0       0       0       0       0       0       0       0       
      +0       0       0       0       0
  1280 ;;      Locals:         0       0       4       0       0       0       0       0       0       0       0       0       
      +0       0       0       0       0
  1281 ;;      Temps:          0       0       5       0       0       0       0       0       0       0       0       0       
      +0       0       0       0       0
  1282 ;;      Totals:         0       0       9       0       0       0       0       0       0       0       0       0       
      +0       0       0       0       0
  1283 ;;Total ram usage:        9 bytes
  1284 ;; Hardware stack levels used:    1
  1285 ;; Hardware stack levels required when called:   12
  1286 ;; This function calls:
  1287 ;;		_CDM
  1288 ;;		_SendBusContents
  1289 ;;		_TSM
  1290 ;; This function is called by:
  1291 ;;		_main
  1292 ;; This function uses a non-reentrant model
  1293 ;;
  1294                           
  1295                           	psect	text5
  1296  0028E6                     __ptext5:
  1297                           	callstack 0
  1298  0028E6                     _TEM:
  1299                           	callstack 18
  1300  0028E6                     
  1301                           ;../../Desktop/336/the3/the3.c: 305:         if(PORTEbits.RE2){
  1302  0028E6  0E00               	movlw	0
  1303  0028E8  0101               	movlb	1	; () banked
  1304  0028EA  6FB1               	movwf	(TEM@charSelect+1)& (0+255),b
  1305  0028EC  0E00               	movlw	0
  1306  0028EE  6FB0               	movwf	TEM@charSelect& (0+255),b
  1307                           
  1308                           ;../../Desktop/336/the3/the3.c: 306: 
  1309  0028F0  0E00               	movlw	0
  1310  0028F2  6FB3               	movwf	(TEM@pressed+1)& (0+255),b
  1311  0028F4  0E00               	movlw	0
  1312  0028F6  6FB2               	movwf	TEM@pressed& (0+255),b
  1313  0028F8                     l152:
  1314                           
  1315                           ;../../Desktop/336/the3/the3.c: 308:             pressed=1;
  1316  0028F8  0E00               	movlw	0
  1317  0028FA  6E8C               	movwf	140,c	;volatile
  1318  0028FC                     
  1319                           ;../../Desktop/336/the3/the3.c: 309:             charSelect = 0;
  1320  0028FC  82C2               	bsf	4034,1,c	;volatile
  1321  0028FE                     
  1322                           ;../../Desktop/336/the3/the3.c: 311:             if(currentIndex==37){
  1323  0028FE  A884               	btfss	132,4,c	;volatile
  1324  002900  EF84  F014         	goto	u3201
  1325  002904  EF86  F014         	goto	u3200
  1326  002908                     u3201:
  1327  002908  EF9A  F014         	goto	l3359
  1328  00290C                     u3200:
  1329  00290C  0E08               	movlw	8
  1330  00290E  0100               	movlb	0	; () banked
  1331  002910  19D6               	xorwf	_charNum& (0+255),w,b
  1332  002912  11D7               	iorwf	(_charNum+1)& (0+255),w,b
  1333  002914  B4D8               	btfsc	status,2,c
  1334  002916  EF8F  F014         	goto	u3211
  1335  00291A  EF91  F014         	goto	u3210
  1336  00291E                     u3211:
  1337  00291E  EF9A  F014         	goto	l3359
  1338  002922                     u3210:
  1339  002922                     l154:
  1340  002922  B884               	btfsc	132,4,c	;volatile
  1341  002924  EF96  F014         	goto	u3221
  1342  002928  EF98  F014         	goto	u3220
  1343  00292C                     u3221:
  1344  00292C  EF91  F014         	goto	l154
  1345  002930                     u3220:
  1346  002930                     
  1347                           ;../../Desktop/336/the3/the3.c: 313:             }
  1348  002930  ECD9  F015         	call	_CDM	;wreg free
  1349  002934                     l3359:
  1350                           
  1351                           ;../../Desktop/336/the3/the3.c: 316: 
  1352  002934  AA84               	btfss	132,5,c	;volatile
  1353  002936  EF9F  F014         	goto	u3231
  1354  00293A  EFA1  F014         	goto	u3230
  1355  00293E                     u3231:
  1356  00293E  EFAA  F014         	goto	l3365
  1357  002942                     u3230:
  1358  002942                     l158:
  1359  002942  BA84               	btfsc	132,5,c	;volatile
  1360  002944  EFA6  F014         	goto	u3241
  1361  002948  EFA8  F014         	goto	u3240
  1362  00294C                     u3241:
  1363  00294C  EFA1  F014         	goto	l158
  1364  002950                     u3240:
  1365  002950                     
  1366                           ;../../Desktop/336/the3/the3.c: 318:             pressed=1;
  1367  002950  EC2E  F017         	call	_TSM	;wreg free
  1368  002954                     l3365:
  1369                           
  1370                           ;../../Desktop/336/the3/the3.c: 321:             if(currentIndex==-1){
  1371  002954  A484               	btfss	132,2,c	;volatile
  1372  002956  EFAF  F014         	goto	u3251
  1373  00295A  EFB1  F014         	goto	u3250
  1374  00295E                     u3251:
  1375  00295E  EFD1  F014         	goto	l3377
  1376  002962                     u3250:
  1377  002962                     l162:
  1378  002962  B484               	btfsc	132,2,c	;volatile
  1379  002964  EFB6  F014         	goto	u3261
  1380  002968  EFB8  F014         	goto	u3260
  1381  00296C                     u3261:
  1382  00296C  EFB1  F014         	goto	l162
  1383  002970                     u3260:
  1384  002970                     
  1385                           ;../../Desktop/336/the3/the3.c: 324:         }
  1386  002970  0E00               	movlw	0
  1387  002972  0101               	movlb	1	; () banked
  1388  002974  6FB3               	movwf	(TEM@pressed+1)& (0+255),b
  1389  002976  0E01               	movlw	1
  1390  002978  6FB2               	movwf	TEM@pressed& (0+255),b
  1391                           
  1392                           ;../../Desktop/336/the3/the3.c: 325:         if(PORTEbits.RE0){
  1393  00297A  0E00               	movlw	0
  1394  00297C  6FB1               	movwf	(TEM@charSelect+1)& (0+255),b
  1395  00297E  0E00               	movlw	0
  1396  002980  6FB0               	movwf	TEM@charSelect& (0+255),b
  1397  002982                     
  1398                           ; BSR set to: 1
  1399                           ;../../Desktop/336/the3/the3.c: 326: 
  1400  002982  4B74               	infsnz	_currentIndex& (0+255),f,b
  1401  002984  2B75               	incf	(_currentIndex+1)& (0+255),f,b
  1402  002986                     
  1403                           ; BSR set to: 1
  1404                           ;../../Desktop/336/the3/the3.c: 327:             while(PORTEbits.RE0);
  1405  002986  0E25               	movlw	37
  1406  002988  1974               	xorwf	_currentIndex& (0+255),w,b
  1407  00298A  1175               	iorwf	(_currentIndex+1)& (0+255),w,b
  1408  00298C  A4D8               	btfss	status,2,c
  1409  00298E  EFCB  F014         	goto	u3271
  1410  002992  EFCD  F014         	goto	u3270
  1411  002996                     u3271:
  1412  002996  EFD1  F014         	goto	l3377
  1413  00299A                     u3270:
  1414  00299A                     
  1415                           ; BSR set to: 1
  1416                           ;../../Desktop/336/the3/the3.c: 328:             pressed=1;
  1417  00299A  0E00               	movlw	0
  1418  00299C  6F75               	movwf	(_currentIndex+1)& (0+255),b
  1419  00299E  0E00               	movlw	0
  1420  0029A0  6F74               	movwf	_currentIndex& (0+255),b
  1421  0029A2                     l3377:
  1422                           
  1423                           ;../../Desktop/336/the3/the3.c: 331:             if(customIndex > charNum-1) customIndex
      +                          =-1;
  1424  0029A2  A284               	btfss	132,1,c	;volatile
  1425  0029A4  EFD6  F014         	goto	u3281
  1426  0029A8  EFD8  F014         	goto	u3280
  1427  0029AC                     u3281:
  1428  0029AC  EFF9  F014         	goto	l3389
  1429  0029B0                     u3280:
  1430  0029B0                     l167:
  1431  0029B0  B284               	btfsc	132,1,c	;volatile
  1432  0029B2  EFDD  F014         	goto	u3291
  1433  0029B6  EFDF  F014         	goto	u3290
  1434  0029BA                     u3291:
  1435  0029BA  EFD8  F014         	goto	l167
  1436  0029BE                     u3290:
  1437  0029BE                     
  1438                           ;../../Desktop/336/the3/the3.c: 334: 
  1439  0029BE  0E00               	movlw	0
  1440  0029C0  0101               	movlb	1	; () banked
  1441  0029C2  6FB3               	movwf	(TEM@pressed+1)& (0+255),b
  1442  0029C4  0E01               	movlw	1
  1443  0029C6  6FB2               	movwf	TEM@pressed& (0+255),b
  1444                           
  1445                           ;../../Desktop/336/the3/the3.c: 335:             while(PORTEbits.RE3);
  1446  0029C8  0E00               	movlw	0
  1447  0029CA  6FB1               	movwf	(TEM@charSelect+1)& (0+255),b
  1448  0029CC  0E00               	movlw	0
  1449  0029CE  6FB0               	movwf	TEM@charSelect& (0+255),b
  1450  0029D0                     
  1451                           ; BSR set to: 1
  1452                           ;../../Desktop/336/the3/the3.c: 336:             pressed=1;
  1453  0029D0  0774               	decf	_currentIndex& (0+255),f,b
  1454  0029D2  A0D8               	btfss	status,0,c
  1455  0029D4  0775               	decf	(_currentIndex+1)& (0+255),f,b
  1456  0029D6                     
  1457                           ; BSR set to: 1
  1458                           ;../../Desktop/336/the3/the3.c: 337:             charSelect = 1;
  1459  0029D6  2974               	incf	_currentIndex& (0+255),w,b
  1460  0029D8  E106               	bnz	u3301
  1461  0029DA  2975               	incf	(_currentIndex+1)& (0+255),w,b
  1462  0029DC  A4D8               	btfss	status,2,c
  1463  0029DE  EFF3  F014         	goto	u3301
  1464  0029E2  EFF5  F014         	goto	u3300
  1465  0029E6                     u3301:
  1466  0029E6  EFF9  F014         	goto	l3389
  1467  0029EA                     u3300:
  1468  0029EA                     
  1469                           ; BSR set to: 1
  1470                           ;../../Desktop/336/the3/the3.c: 338:             customIndex--;
  1471  0029EA  0E00               	movlw	0
  1472  0029EC  6F75               	movwf	(_currentIndex+1)& (0+255),b
  1473  0029EE  0E24               	movlw	36
  1474  0029F0  6F74               	movwf	_currentIndex& (0+255),b
  1475  0029F2                     l3389:
  1476                           
  1477                           ;../../Desktop/336/the3/the3.c: 341:         }
  1478  0029F2  A084               	btfss	132,0,c	;volatile
  1479  0029F4  EFFE  F014         	goto	u3311
  1480  0029F8  EF00  F015         	goto	u3310
  1481  0029FC                     u3311:
  1482  0029FC  EF2F  F015         	goto	l171
  1483  002A00                     u3310:
  1484  002A00                     l172:
  1485  002A00  B084               	btfsc	132,0,c	;volatile
  1486  002A02  EF05  F015         	goto	u3321
  1487  002A06  EF07  F015         	goto	u3320
  1488  002A0A                     u3321:
  1489  002A0A  EF00  F015         	goto	l172
  1490  002A0E                     u3320:
  1491  002A0E                     
  1492                           ;../../Desktop/336/the3/the3.c: 344: 
  1493  002A0E  0E00               	movlw	0
  1494  002A10  0101               	movlb	1	; () banked
  1495  002A12  6FB3               	movwf	(TEM@pressed+1)& (0+255),b
  1496  002A14  0E01               	movlw	1
  1497  002A16  6FB2               	movwf	TEM@pressed& (0+255),b
  1498                           
  1499                           ;../../Desktop/336/the3/the3.c: 345:             pressed=0;
  1500  002A18  0E00               	movlw	0
  1501  002A1A  6FB1               	movwf	(TEM@charSelect+1)& (0+255),b
  1502  002A1C  0E01               	movlw	1
  1503  002A1E  6FB0               	movwf	TEM@charSelect& (0+255),b
  1504  002A20                     
  1505                           ; BSR set to: 1
  1506                           ;../../Desktop/336/the3/the3.c: 346:             PORTBbits.RB2 = 1;
  1507  002A20  4B9C               	infsnz	_customIndex& (0+255),f,b
  1508  002A22  2B9D               	incf	(_customIndex+1)& (0+255),f,b
  1509  002A24                     
  1510                           ; BSR set to: 1
  1511                           ;../../Desktop/336/the3/the3.c: 347:             SendBusContents(PREDEFINED[currentIndex
      +                          ]);
  1512  002A24  0EFF               	movlw	255
  1513  002A26  6FAB               	movwf	??_TEM& (0+255),b
  1514  002A28  0EFF               	movlw	255
  1515  002A2A  6FAC               	movwf	(??_TEM+1)& (0+255),b
  1516  002A2C  C0D6  F1AD         	movff	_charNum,??_TEM+2
  1517  002A30  C0D7  F1AE         	movff	_charNum+1,??_TEM+3
  1518  002A34  51AB               	movf	??_TEM& (0+255),w,b
  1519  002A36  27AD               	addwf	(??_TEM+2)& (0+255),f,b
  1520  002A38  51AC               	movf	(??_TEM+1)& (0+255),w,b
  1521  002A3A  23AE               	addwfc	(??_TEM+3)& (0+255),f,b
  1522  002A3C  519C               	movf	_customIndex& (0+255),w,b
  1523  002A3E  5DAD               	subwf	(??_TEM+2)& (0+255),w,b
  1524  002A40  51AE               	movf	(??_TEM+3)& (0+255),w,b
  1525  002A42  0A80               	xorlw	128
  1526  002A44  6FAF               	movwf	(??_TEM+4)& (0+255),b
  1527  002A46  519D               	movf	(_customIndex+1)& (0+255),w,b
  1528  002A48  0A80               	xorlw	128
  1529  002A4A  59AF               	subwfb	(??_TEM+4)& (0+255),w,b
  1530  002A4C  B0D8               	btfsc	status,0,c
  1531  002A4E  EF2B  F015         	goto	u3331
  1532  002A52  EF2D  F015         	goto	u3330
  1533  002A56                     u3331:
  1534  002A56  EF2F  F015         	goto	l171
  1535  002A5A                     u3330:
  1536  002A5A                     
  1537                           ; BSR set to: 1
  1538  002A5A  699C               	setf	_customIndex& (0+255),b
  1539  002A5C  699D               	setf	(_customIndex+1)& (0+255),b
  1540  002A5E                     l171:
  1541                           
  1542                           ;../../Desktop/336/the3/the3.c: 349:             PORTBbits.RB2 = 0;
  1543  002A5E  A684               	btfss	132,3,c	;volatile
  1544  002A60  EF34  F015         	goto	u3341
  1545  002A64  EF36  F015         	goto	u3340
  1546  002A68                     u3341:
  1547  002A68  EF60  F015         	goto	l176
  1548  002A6C                     u3340:
  1549  002A6C                     l177:
  1550  002A6C  B684               	btfsc	132,3,c	;volatile
  1551  002A6E  EF3B  F015         	goto	u3351
  1552  002A72  EF3D  F015         	goto	u3350
  1553  002A76                     u3351:
  1554  002A76  EF36  F015         	goto	l177
  1555  002A7A                     u3350:
  1556  002A7A                     
  1557                           ;../../Desktop/336/the3/the3.c: 352:         }
  1558  002A7A  0E00               	movlw	0
  1559  002A7C  0101               	movlb	1	; () banked
  1560  002A7E  6FB3               	movwf	(TEM@pressed+1)& (0+255),b
  1561  002A80  0E01               	movlw	1
  1562  002A82  6FB2               	movwf	TEM@pressed& (0+255),b
  1563                           
  1564                           ;../../Desktop/336/the3/the3.c: 353:         if(charSelect && pressed){
  1565  002A84  0E00               	movlw	0
  1566  002A86  6FB1               	movwf	(TEM@charSelect+1)& (0+255),b
  1567  002A88  0E01               	movlw	1
  1568  002A8A  6FB0               	movwf	TEM@charSelect& (0+255),b
  1569  002A8C                     
  1570                           ; BSR set to: 1
  1571                           ;../../Desktop/336/the3/the3.c: 354: 
  1572  002A8C  079C               	decf	_customIndex& (0+255),f,b
  1573  002A8E  A0D8               	btfss	status,0,c
  1574  002A90  079D               	decf	(_customIndex+1)& (0+255),f,b
  1575  002A92                     
  1576                           ; BSR set to: 1
  1577                           ;../../Desktop/336/the3/the3.c: 355:             pressed=0;
  1578  002A92  AF9D               	btfss	(_customIndex+1)& (0+255),7,b
  1579  002A94  EF54  F015         	goto	u3361
  1580  002A98  299C               	incf	_customIndex& (0+255),w,b
  1581  002A9A  0EFF               	movlw	255
  1582  002A9C  599D               	subwfb	(_customIndex+1)& (0+255),w,b
  1583  002A9E  B0D8               	btfsc	status,0,c
  1584  002AA0  EF54  F015         	goto	u3361
  1585  002AA4  EF56  F015         	goto	u3360
  1586  002AA8                     u3361:
  1587  002AA8  EF60  F015         	goto	l176
  1588  002AAC                     u3360:
  1589  002AAC                     
  1590                           ; BSR set to: 1
  1591  002AAC  0EFF               	movlw	255
  1592  002AAE  0100               	movlb	0	; () banked
  1593  002AB0  25D6               	addwf	_charNum& (0+255),w,b
  1594  002AB2  0101               	movlb	1	; () banked
  1595  002AB4  6F9C               	movwf	_customIndex& (0+255),b
  1596  002AB6  0EFF               	movlw	255
  1597  002AB8  0100               	movlb	0	; () banked
  1598  002ABA  21D7               	addwfc	(_charNum+1)& (0+255),w,b
  1599  002ABC  0101               	movlb	1	; () banked
  1600  002ABE  6F9D               	movwf	(_customIndex+1)& (0+255),b
  1601  002AC0                     l176:
  1602                           
  1603                           ;../../Desktop/336/the3/the3.c: 359:             custom_sentence[result]=customIndex;
  1604  002AC0  0101               	movlb	1	; () banked
  1605  002AC2  51B0               	movf	TEM@charSelect& (0+255),w,b
  1606  002AC4  11B1               	iorwf	(TEM@charSelect+1)& (0+255),w,b
  1607  002AC6  A4D8               	btfss	status,2,c
  1608  002AC8  EF68  F015         	goto	u3371
  1609  002ACC  EF6A  F015         	goto	u3370
  1610  002AD0                     u3371:
  1611  002AD0  EF97  F015         	goto	l3427
  1612  002AD4                     u3370:
  1613  002AD4                     
  1614                           ; BSR set to: 1
  1615  002AD4  51B2               	movf	TEM@pressed& (0+255),w,b
  1616  002AD6  11B3               	iorwf	(TEM@pressed+1)& (0+255),w,b
  1617  002AD8  B4D8               	btfsc	status,2,c
  1618  002ADA  EF71  F015         	goto	u3381
  1619  002ADE  EF73  F015         	goto	u3380
  1620  002AE2                     u3381:
  1621  002AE2  EF97  F015         	goto	l3427
  1622  002AE6                     u3380:
  1623  002AE6                     
  1624                           ; BSR set to: 1
  1625                           ;../../Desktop/336/the3/the3.c: 361:             SendBusContents(0x10);
  1626  002AE6  0E00               	movlw	0
  1627  002AE8  6FB3               	movwf	(TEM@pressed+1)& (0+255),b
  1628  002AEA  0E00               	movlw	0
  1629  002AEC  6FB2               	movwf	TEM@pressed& (0+255),b
  1630  002AEE                     
  1631                           ; BSR set to: 1
  1632                           ;../../Desktop/336/the3/the3.c: 362:             _delay((unsigned long)((30)*(40000000/4
      +                          000000.0)));
  1633  002AEE  8481               	bsf	129,2,c	;volatile
  1634  002AF0                     
  1635                           ; BSR set to: 1
  1636                           ;../../Desktop/336/the3/the3.c: 363:         }
  1637  002AF0  0E76               	movlw	low _PREDEFINED
  1638  002AF2  2574               	addwf	_currentIndex& (0+255),w,b
  1639  002AF4  6ED9               	movwf	fsr2l,c
  1640  002AF6  0E01               	movlw	high _PREDEFINED
  1641  002AF8  2175               	addwfc	(_currentIndex+1)& (0+255),w,b
  1642  002AFA  6EDA               	movwf	fsr2h,c
  1643  002AFC  50DF               	movf	indf2,w,c
  1644  002AFE  ECB1  F01B         	call	_SendBusContents
  1645  002B02                     
  1646                           ;../../Desktop/336/the3/the3.c: 364: 
  1647  002B02  0E76               	movlw	low _PREDEFINED
  1648  002B04  0101               	movlb	1	; () banked
  1649  002B06  2574               	addwf	_currentIndex& (0+255),w,b
  1650  002B08  6ED9               	movwf	fsr2l,c
  1651  002B0A  0E01               	movlw	high _PREDEFINED
  1652  002B0C  2175               	addwfc	(_currentIndex+1)& (0+255),w,b
  1653  002B0E  6EDA               	movwf	fsr2h,c
  1654  002B10  0E60               	movlw	low _sentence
  1655  002B12  2572               	addwf	_result& (0+255),w,b
  1656  002B14  6EE1               	movwf	fsr1l,c
  1657  002B16  0E01               	movlw	high _sentence
  1658  002B18  2173               	addwfc	(_result+1)& (0+255),w,b
  1659  002B1A  6EE2               	movwf	fsr1h,c
  1660  002B1C  CFDF FFE7          	movff	indf2,indf1
  1661  002B20                     
  1662                           ; BSR set to: 1
  1663                           ;../../Desktop/336/the3/the3.c: 365: 
  1664  002B20  9481               	bcf	129,2,c	;volatile
  1665  002B22                     
  1666                           ; BSR set to: 1
  1667                           ;../../Desktop/336/the3/the3.c: 366: 
  1668  002B22  0E10               	movlw	16
  1669  002B24  ECB1  F01B         	call	_SendBusContents
  1670  002B28                     
  1671                           ;../../Desktop/336/the3/the3.c: 367:     }
  1672  002B28  0E64               	movlw	100
  1673  002B2A                     u3637:
  1674  002B2A  2EE8               	decfsz	wreg,f,c
  1675  002B2C  D7FE               	bra	u3637
  1676  002B2E                     l3427:
  1677                           
  1678                           ;../../Desktop/336/the3/the3.c: 369: 
  1679  002B2E  0101               	movlb	1	; () banked
  1680  002B30  51B0               	movf	TEM@charSelect& (0+255),w,b
  1681  002B32  11B1               	iorwf	(TEM@charSelect+1)& (0+255),w,b
  1682  002B34  B4D8               	btfsc	status,2,c
  1683  002B36  EF9F  F015         	goto	u3391
  1684  002B3A  EFA1  F015         	goto	u3390
  1685  002B3E                     u3391:
  1686  002B3E  EF7C  F014         	goto	l152
  1687  002B42                     u3390:
  1688  002B42                     
  1689                           ; BSR set to: 1
  1690  002B42  51B2               	movf	TEM@pressed& (0+255),w,b
  1691  002B44  11B3               	iorwf	(TEM@pressed+1)& (0+255),w,b
  1692  002B46  B4D8               	btfsc	status,2,c
  1693  002B48  EFA8  F015         	goto	u3401
  1694  002B4C  EFAA  F015         	goto	u3400
  1695  002B50                     u3401:
  1696  002B50  EF7C  F014         	goto	l152
  1697  002B54                     u3400:
  1698  002B54                     
  1699                           ; BSR set to: 1
  1700                           ;../../Desktop/336/the3/the3.c: 371: 
  1701  002B54  0E00               	movlw	0
  1702  002B56  6FB3               	movwf	(TEM@pressed+1)& (0+255),b
  1703  002B58  0E00               	movlw	0
  1704  002B5A  6FB2               	movwf	TEM@pressed& (0+255),b
  1705  002B5C                     
  1706                           ; BSR set to: 1
  1707                           ;../../Desktop/336/the3/the3.c: 372: void CDM(){
  1708  002B5C  8481               	bsf	129,2,c	;volatile
  1709  002B5E                     
  1710                           ; BSR set to: 1
  1711                           ;../../Desktop/336/the3/the3.c: 373: 
  1712  002B5E  299C               	incf	_customIndex& (0+255),w,b
  1713  002B60  E106               	bnz	u3411
  1714  002B62  299D               	incf	(_customIndex+1)& (0+255),w,b
  1715  002B64  A4D8               	btfss	status,2,c
  1716  002B66  EFB7  F015         	goto	u3411
  1717  002B6A  EFB9  F015         	goto	u3410
  1718  002B6E                     u3411:
  1719  002B6E  EFBE  F015         	goto	l3439
  1720  002B72                     u3410:
  1721  002B72                     
  1722                           ; BSR set to: 1
  1723  002B72  0E20               	movlw	32
  1724  002B74  ECB1  F01B         	call	_SendBusContents
  1725  002B78  EFC1  F015         	goto	l3441
  1726  002B7C                     l3439:
  1727                           
  1728                           ; BSR set to: 1
  1729  002B7C  519C               	movf	_customIndex& (0+255),w,b
  1730  002B7E  ECB1  F01B         	call	_SendBusContents
  1731  002B82                     l3441:
  1732                           
  1733                           ;../../Desktop/336/the3/the3.c: 375:     LATA=0x00;
  1734  002B82  90D8               	bcf	status,0,c
  1735  002B84  0101               	movlb	1	; () banked
  1736  002B86  3572               	rlcf	_result& (0+255),w,b
  1737  002B88  6ED9               	movwf	fsr2l,c
  1738  002B8A  3573               	rlcf	(_result+1)& (0+255),w,b
  1739  002B8C  6EDA               	movwf	fsr2h,c
  1740  002B8E  0E40               	movlw	low _custom_sentence
  1741  002B90  26D9               	addwf	fsr2l,f,c
  1742  002B92  0E01               	movlw	high _custom_sentence
  1743  002B94  22DA               	addwfc	fsr2h,f,c
  1744  002B96  C19C  FFDE         	movff	_customIndex,postinc2
  1745  002B9A  C19D  FFDD         	movff	_customIndex+1,postdec2
  1746  002B9E                     
  1747                           ; BSR set to: 1
  1748                           ;../../Desktop/336/the3/the3.c: 376:     LATB=0x00;
  1749  002B9E  9481               	bcf	129,2,c	;volatile
  1750  002BA0                     
  1751                           ; BSR set to: 1
  1752                           ;../../Desktop/336/the3/the3.c: 377:     LATC=0x00;
  1753  002BA0  0E10               	movlw	16
  1754  002BA2  ECB1  F01B         	call	_SendBusContents
  1755  002BA6                     
  1756                           ;../../Desktop/336/the3/the3.c: 378:     LATD=0x00;
  1757  002BA6  0E64               	movlw	100
  1758  002BA8                     u3647:
  1759  002BA8  2EE8               	decfsz	wreg,f,c
  1760  002BAA  D7FE               	bra	u3647
  1761  002BAC  EF7C  F014         	goto	l152
  1762  002BB0  0012               	return		;funcret
  1763  002BB2                     __end_of_TEM:
  1764                           	callstack 0
  1765                           
  1766 ;; *************** function _TSM *****************
  1767 ;; Defined at:
  1768 ;;		line 482 in file "../../Desktop/336/the3/the3.c"
  1769 ;; Parameters:    Size  Location     Type
  1770 ;;		None
  1771 ;; Auto vars:     Size  Location     Type
  1772 ;;  i               2    8[BANK1 ] int 
  1773 ;;  i               2    6[BANK1 ] int 
  1774 ;;  tmp2            2    3[BANK1 ] int 
  1775 ;;  tmp             1    5[BANK1 ] unsigned char 
  1776 ;; Return value:  Size  Location     Type
  1777 ;;                  1    wreg      void 
  1778 ;; Registers used:
  1779 ;;		wreg, fsr1l, fsr1h, fsr2l, fsr2h, status,2, status,0, cstack
  1780 ;; Tracked objects:
  1781 ;;		On entry : 0/0
  1782 ;;		On exit  : 0/0
  1783 ;;		Unchanged: 0/0
  1784 ;; Data sizes:     COMRAM   BANK0   BANK1   BANK2   BANK3   BANK4   BANK5   BANK6   BANK7   BANK8   BANK9  BANK10  BANK1
      +1  BANK12  BANK13  BANK14  BANK15
  1785 ;;      Params:         0       0       0       0       0       0       0       0       0       0       0       0       
      +0       0       0       0       0
  1786 ;;      Locals:         0       0       7       0       0       0       0       0       0       0       0       0       
      +0       0       0       0       0
  1787 ;;      Temps:          0       0       2       0       0       0       0       0       0       0       0       0       
      +0       0       0       0       0
  1788 ;;      Totals:         0       0       9       0       0       0       0       0       0       0       0       0       
      +0       0       0       0       0
  1789 ;;Total ram usage:        9 bytes
  1790 ;; Hardware stack levels used:    1
  1791 ;; Hardware stack levels required when called:   10
  1792 ;; This function calls:
  1793 ;;		_SendBusContents
  1794 ;; This function is called by:
  1795 ;;		_TEM
  1796 ;; This function uses a non-reentrant model
  1797 ;;
  1798                           
  1799                           	psect	text6
  1800  002E5C                     __ptext6:
  1801                           	callstack 0
  1802  002E5C                     _TSM:
  1803                           	callstack 19
  1804  002E5C                     
  1805                           ;../../Desktop/336/the3/the3.c: 484:     PORTBbits.RB2=0;
  1806  002E5C  0E00               	movlw	0
  1807  002E5E  6E89               	movwf	137,c	;volatile
  1808                           
  1809                           ;../../Desktop/336/the3/the3.c: 485:     SendBusContents(0x80 + 3);
  1810  002E60  0E00               	movlw	0
  1811  002E62  6E8A               	movwf	138,c	;volatile
  1812                           
  1813                           ;../../Desktop/336/the3/the3.c: 486: 
  1814  002E64  0E00               	movlw	0
  1815  002E66  6E8B               	movwf	139,c	;volatile
  1816                           
  1817                           ;../../Desktop/336/the3/the3.c: 487:     PORTBbits.RB2=1;
  1818  002E68  0E00               	movlw	0
  1819  002E6A  6E8C               	movwf	140,c	;volatile
  1820  002E6C                     
  1821                           ;../../Desktop/336/the3/the3.c: 489:     SendBusContents('i');
  1822  002E6C  8C9D               	bsf	157,6,c	;volatile
  1823  002E6E                     
  1824                           ;../../Desktop/336/the3/the3.c: 490:     SendBusContents('n');
  1825  002E6E  9481               	bcf	129,2,c	;volatile
  1826  002E70                     
  1827                           ;../../Desktop/336/the3/the3.c: 491:     SendBusContents('i');
  1828  002E70  0E0C               	movlw	12
  1829  002E72  ECB1  F01B         	call	_SendBusContents
  1830  002E76                     
  1831                           ;../../Desktop/336/the3/the3.c: 493:     SendBusContents('h');
  1832  002E76  0E82               	movlw	130
  1833  002E78  0101               	movlb	1	; () banked
  1834  002E7A  6F9F               	movwf	??_TSM& (0+255),b
  1835  002E7C  0EDD               	movlw	221
  1836  002E7E                     u3657:
  1837  002E7E  2EE8               	decfsz	wreg,f,c
  1838  002E80  D7FE               	bra	u3657
  1839  002E82  2F9F               	decfsz	??_TSM& (0+255),f,b
  1840  002E84  D7FC               	bra	u3657
  1841  002E86  D000               	nop2	
  1842  002E88                     
  1843                           ;../../Desktop/336/the3/the3.c: 495:     SendBusContents('d');
  1844  002E88  9481               	bcf	129,2,c	;volatile
  1845  002E8A                     
  1846                           ;../../Desktop/336/the3/the3.c: 496: 
  1847  002E8A  0E01               	movlw	1
  1848  002E8C  ECB1  F01B         	call	_SendBusContents
  1849  002E90                     
  1850                           ;../../Desktop/336/the3/the3.c: 498:     while(1){
  1851  002E90  0E82               	movlw	130
  1852  002E92  0101               	movlb	1	; () banked
  1853  002E94  6F9F               	movwf	??_TSM& (0+255),b
  1854  002E96  0EDD               	movlw	221
  1855  002E98                     u3667:
  1856  002E98  2EE8               	decfsz	wreg,f,c
  1857  002E9A  D7FE               	bra	u3667
  1858  002E9C  2F9F               	decfsz	??_TSM& (0+255),f,b
  1859  002E9E  D7FC               	bra	u3667
  1860  002EA0  D000               	nop2	
  1861  002EA2                     
  1862                           ;../../Desktop/336/the3/the3.c: 500:         SendBusContents(0xC0);
  1863  002EA2  9481               	bcf	129,2,c	;volatile
  1864  002EA4                     
  1865                           ;../../Desktop/336/the3/the3.c: 501: 
  1866  002EA4  0E83               	movlw	131
  1867  002EA6  ECB1  F01B         	call	_SendBusContents
  1868  002EAA                     
  1869                           ;../../Desktop/336/the3/the3.c: 503:         PORTBbits.RB2=1;
  1870  002EAA  8481               	bsf	129,2,c	;volatile
  1871  002EAC                     
  1872                           ;../../Desktop/336/the3/the3.c: 504:         for(int i=0; i<16; i++){
  1873  002EAC  0E66               	movlw	102
  1874  002EAE  ECB1  F01B         	call	_SendBusContents
  1875  002EB2                     
  1876                           ;../../Desktop/336/the3/the3.c: 505:             if(sentence[i]!=' '){
  1877  002EB2  0E69               	movlw	105
  1878  002EB4  ECB1  F01B         	call	_SendBusContents
  1879  002EB8                     
  1880                           ;../../Desktop/336/the3/the3.c: 506:                 SendBusContents(sentence[i]);
  1881  002EB8  0E6E               	movlw	110
  1882  002EBA  ECB1  F01B         	call	_SendBusContents
  1883  002EBE                     
  1884                           ;../../Desktop/336/the3/the3.c: 507:                 continue;
  1885  002EBE  0E69               	movlw	105
  1886  002EC0  ECB1  F01B         	call	_SendBusContents
  1887  002EC4                     
  1888                           ;../../Desktop/336/the3/the3.c: 508:             }
  1889  002EC4  0E73               	movlw	115
  1890  002EC6  ECB1  F01B         	call	_SendBusContents
  1891  002ECA                     
  1892                           ;../../Desktop/336/the3/the3.c: 509:             if(custom_sentence[i]!=-1){
  1893  002ECA  0E68               	movlw	104
  1894  002ECC  ECB1  F01B         	call	_SendBusContents
  1895  002ED0                     
  1896                           ;../../Desktop/336/the3/the3.c: 510:                 SendBusContents(custom_sentence[i])
      +                          ;
  1897  002ED0  0E65               	movlw	101
  1898  002ED2  ECB1  F01B         	call	_SendBusContents
  1899  002ED6                     
  1900                           ;../../Desktop/336/the3/the3.c: 511:                 continue;
  1901  002ED6  0E64               	movlw	100
  1902  002ED8  ECB1  F01B         	call	_SendBusContents
  1903  002EDC                     l3205:
  1904                           
  1905                           ;../../Desktop/336/the3/the3.c: 515: 
  1906  002EDC  9481               	bcf	129,2,c	;volatile
  1907  002EDE                     
  1908                           ;../../Desktop/336/the3/the3.c: 516: 
  1909  002EDE  0EC0               	movlw	192
  1910  002EE0  ECB1  F01B         	call	_SendBusContents
  1911  002EE4                     
  1912                           ;../../Desktop/336/the3/the3.c: 519:         for(int i=0;i<15;i++){
  1913  002EE4  8481               	bsf	129,2,c	;volatile
  1914                           
  1915                           ;../../Desktop/336/the3/the3.c: 520:             sentence[i]=sentence[i+1];
  1916  002EE6  0E00               	movlw	0
  1917  002EE8  0101               	movlb	1	; () banked
  1918  002EEA  6FA5               	movwf	(TSM@i+1)& (0+255),b
  1919  002EEC  0E00               	movlw	0
  1920  002EEE  6FA4               	movwf	TSM@i& (0+255),b
  1921  002EF0                     l3215:
  1922                           
  1923                           ; BSR set to: 1
  1924                           ;../../Desktop/336/the3/the3.c: 521:             custom_sentence[i]=custom_sentence[i+1]
      +                          ;
  1925  002EF0  0E60               	movlw	low _sentence
  1926  002EF2  25A4               	addwf	TSM@i& (0+255),w,b
  1927  002EF4  6ED9               	movwf	fsr2l,c
  1928  002EF6  0E01               	movlw	high _sentence
  1929  002EF8  21A5               	addwfc	(TSM@i+1)& (0+255),w,b
  1930  002EFA  6EDA               	movwf	fsr2h,c
  1931  002EFC  0E20               	movlw	32
  1932  002EFE  18DE               	xorwf	postinc2,w,c
  1933  002F00  B4D8               	btfsc	status,2,c
  1934  002F02  EF85  F017         	goto	u3091
  1935  002F06  EF87  F017         	goto	u3090
  1936  002F0A                     u3091:
  1937  002F0A  EF92  F017         	goto	l3219
  1938  002F0E                     u3090:
  1939  002F0E                     
  1940                           ; BSR set to: 1
  1941                           ;../../Desktop/336/the3/the3.c: 522:         }
  1942  002F0E  0E60               	movlw	low _sentence
  1943  002F10  25A4               	addwf	TSM@i& (0+255),w,b
  1944  002F12  6ED9               	movwf	fsr2l,c
  1945  002F14  0E01               	movlw	high _sentence
  1946  002F16  21A5               	addwfc	(TSM@i+1)& (0+255),w,b
  1947  002F18  6EDA               	movwf	fsr2h,c
  1948  002F1A  50DF               	movf	indf2,w,c
  1949  002F1C  ECB1  F01B         	call	_SendBusContents
  1950                           
  1951                           ;../../Desktop/336/the3/the3.c: 523:         sentence[15]=tmp;
  1952  002F20  EFB6  F017         	goto	l3225
  1953  002F24                     l3219:
  1954                           
  1955                           ; BSR set to: 1
  1956                           ;../../Desktop/336/the3/the3.c: 525: 
  1957  002F24  90D8               	bcf	status,0,c
  1958  002F26  35A4               	rlcf	TSM@i& (0+255),w,b
  1959  002F28  6ED9               	movwf	fsr2l,c
  1960  002F2A  35A5               	rlcf	(TSM@i+1)& (0+255),w,b
  1961  002F2C  6EDA               	movwf	fsr2h,c
  1962  002F2E  0E40               	movlw	low _custom_sentence
  1963  002F30  26D9               	addwf	fsr2l,f,c
  1964  002F32  0E01               	movlw	high _custom_sentence
  1965  002F34  22DA               	addwfc	fsr2h,f,c
  1966  002F36  28DE               	incf	postinc2,w,c
  1967  002F38  E108               	bnz	u3100
  1968  002F3A  28DE               	incf	postinc2,w,c
  1969  002F3C  B4D8               	btfsc	status,2,c
  1970  002F3E  EFA3  F017         	goto	u3101
  1971  002F42  EFA5  F017         	goto	u3100
  1972  002F46                     u3101:
  1973  002F46  EFB3  F017         	goto	l3223
  1974  002F4A                     u3100:
  1975  002F4A                     
  1976                           ; BSR set to: 1
  1977                           ;../../Desktop/336/the3/the3.c: 526:         _delay((unsigned long)((250)*(40000000/4000
      +                          .0)));
  1978  002F4A  90D8               	bcf	status,0,c
  1979  002F4C  35A4               	rlcf	TSM@i& (0+255),w,b
  1980  002F4E  6ED9               	movwf	fsr2l,c
  1981  002F50  35A5               	rlcf	(TSM@i+1)& (0+255),w,b
  1982  002F52  6EDA               	movwf	fsr2h,c
  1983  002F54  0E40               	movlw	low _custom_sentence
  1984  002F56  26D9               	addwf	fsr2l,f,c
  1985  002F58  0E01               	movlw	high _custom_sentence
  1986  002F5A  22DA               	addwfc	fsr2h,f,c
  1987  002F5C  50DF               	movf	indf2,w,c
  1988  002F5E  ECB1  F01B         	call	_SendBusContents
  1989                           
  1990                           ;../../Desktop/336/the3/the3.c: 527: 
  1991  002F62  EFB6  F017         	goto	l3225
  1992  002F66                     l3223:
  1993                           
  1994                           ; BSR set to: 1
  1995                           ;../../Desktop/336/the3/the3.c: 529: }
  1996  002F66  0E20               	movlw	32
  1997  002F68  ECB1  F01B         	call	_SendBusContents
  1998  002F6C                     l3225:
  1999  002F6C  0101               	movlb	1	; () banked
  2000  002F6E  4BA4               	infsnz	TSM@i& (0+255),f,b
  2001  002F70  2BA5               	incf	(TSM@i+1)& (0+255),f,b
  2002  002F72                     
  2003                           ; BSR set to: 1
  2004  002F72  BFA5               	btfsc	(TSM@i+1)& (0+255),7,b
  2005  002F74  EFC5  F017         	goto	u3111
  2006  002F78  51A5               	movf	(TSM@i+1)& (0+255),w,b
  2007  002F7A  E109               	bnz	u3110
  2008  002F7C  0E10               	movlw	16
  2009  002F7E  5DA4               	subwf	TSM@i& (0+255),w,b
  2010  002F80  A0D8               	btfss	status,0,c
  2011  002F82  EFC5  F017         	goto	u3111
  2012  002F86  EFC7  F017         	goto	u3110
  2013  002F8A                     u3111:
  2014  002F8A  EF78  F017         	goto	l3215
  2015  002F8E                     u3110:
  2016  002F8E                     
  2017                           ; BSR set to: 1
  2018  002F8E  C160  F1A3         	movff	_sentence,TSM@tmp
  2019  002F92  C140  F1A1         	movff	_custom_sentence,TSM@tmp2
  2020  002F96  C141  F1A2         	movff	_custom_sentence+1,TSM@tmp2+1
  2021  002F9A                     
  2022                           ; BSR set to: 1
  2023  002F9A  0E00               	movlw	0
  2024  002F9C  6FA7               	movwf	(TSM@i_654+1)& (0+255),b
  2025  002F9E  0E00               	movlw	0
  2026  002FA0  6FA6               	movwf	TSM@i_654& (0+255),b
  2027  002FA2                     l3235:
  2028                           
  2029                           ; BSR set to: 1
  2030  002FA2  0E61               	movlw	low (_sentence+1)
  2031  002FA4  25A6               	addwf	TSM@i_654& (0+255),w,b
  2032  002FA6  6ED9               	movwf	fsr2l,c
  2033  002FA8  0E01               	movlw	high (_sentence+1)
  2034  002FAA  21A7               	addwfc	(TSM@i_654+1)& (0+255),w,b
  2035  002FAC  6EDA               	movwf	fsr2h,c
  2036  002FAE  0E60               	movlw	low _sentence
  2037  002FB0  25A6               	addwf	TSM@i_654& (0+255),w,b
  2038  002FB2  6EE1               	movwf	fsr1l,c
  2039  002FB4  0E01               	movlw	high _sentence
  2040  002FB6  21A7               	addwfc	(TSM@i_654+1)& (0+255),w,b
  2041  002FB8  6EE2               	movwf	fsr1h,c
  2042  002FBA  CFDF FFE7          	movff	indf2,indf1
  2043  002FBE  90D8               	bcf	status,0,c
  2044  002FC0  35A6               	rlcf	TSM@i_654& (0+255),w,b
  2045  002FC2  6ED9               	movwf	fsr2l,c
  2046  002FC4  35A7               	rlcf	(TSM@i_654+1)& (0+255),w,b
  2047  002FC6  6EDA               	movwf	fsr2h,c
  2048  002FC8  0E42               	movlw	low (_custom_sentence+2)
  2049  002FCA  26D9               	addwf	fsr2l,f,c
  2050  002FCC  0E01               	movlw	high (_custom_sentence+2)
  2051  002FCE  22DA               	addwfc	fsr2h,f,c
  2052  002FD0  90D8               	bcf	status,0,c
  2053  002FD2  35A6               	rlcf	TSM@i_654& (0+255),w,b
  2054  002FD4  6EE1               	movwf	fsr1l,c
  2055  002FD6  35A7               	rlcf	(TSM@i_654+1)& (0+255),w,b
  2056  002FD8  6EE2               	movwf	fsr1h,c
  2057  002FDA  0E40               	movlw	low _custom_sentence
  2058  002FDC  26E1               	addwf	fsr1l,f,c
  2059  002FDE  0E01               	movlw	high _custom_sentence
  2060  002FE0  22E2               	addwfc	fsr1h,f,c
  2061  002FE2  CFDE FFE6          	movff	postinc2,postinc1
  2062  002FE6  CFDD FFE5          	movff	postdec2,postdec1
  2063  002FEA                     
  2064                           ; BSR set to: 1
  2065  002FEA  4BA6               	infsnz	TSM@i_654& (0+255),f,b
  2066  002FEC  2BA7               	incf	(TSM@i_654+1)& (0+255),f,b
  2067  002FEE                     
  2068                           ; BSR set to: 1
  2069  002FEE  BFA7               	btfsc	(TSM@i_654+1)& (0+255),7,b
  2070  002FF0  EF03  F018         	goto	u3121
  2071  002FF4  51A7               	movf	(TSM@i_654+1)& (0+255),w,b
  2072  002FF6  E109               	bnz	u3120
  2073  002FF8  0E0F               	movlw	15
  2074  002FFA  5DA6               	subwf	TSM@i_654& (0+255),w,b
  2075  002FFC  A0D8               	btfss	status,0,c
  2076  002FFE  EF03  F018         	goto	u3121
  2077  003002  EF05  F018         	goto	u3120
  2078  003006                     u3121:
  2079  003006  EFD1  F017         	goto	l3235
  2080  00300A                     u3120:
  2081  00300A                     
  2082                           ; BSR set to: 1
  2083  00300A  C1A3  F16F         	movff	TSM@tmp,_sentence+15
  2084  00300E  C1A1  F15E         	movff	TSM@tmp2,_custom_sentence+30
  2085  003012  C1A2  F15F         	movff	TSM@tmp2+1,_custom_sentence+31
  2086  003016                     
  2087                           ; BSR set to: 1
  2088  003016  0E0D               	movlw	13
  2089  003018  0101               	movlb	1	; () banked
  2090  00301A  6FA0               	movwf	(??_TSM+1)& (0+255),b
  2091  00301C  0EAF               	movlw	175
  2092  00301E  6F9F               	movwf	??_TSM& (0+255),b
  2093  003020  0EB6               	movlw	182
  2094  003022                     u3677:
  2095  003022  2EE8               	decfsz	wreg,f,c
  2096  003024  D7FE               	bra	u3677
  2097  003026  2F9F               	decfsz	??_TSM& (0+255),f,b
  2098  003028  D7FC               	bra	u3677
  2099  00302A  2FA0               	decfsz	(??_TSM+1)& (0+255),f,b
  2100  00302C  D7FA               	bra	u3677
  2101  00302E  F000               	nop	
  2102  003030  EF6E  F017         	goto	l3205
  2103  003034  0012               	return		;funcret
  2104  003036                     __end_of_TSM:
  2105                           	callstack 0
  2106                           
  2107 ;; *************** function _CDM *****************
  2108 ;; Defined at:
  2109 ;;		line 388 in file "../../Desktop/336/the3/the3.c"
  2110 ;; Parameters:    Size  Location     Type
  2111 ;;		None
  2112 ;; Auto vars:     Size  Location     Type
  2113 ;;		None
  2114 ;; Return value:  Size  Location     Type
  2115 ;;                  1    wreg      void 
  2116 ;; Registers used:
  2117 ;;		wreg, fsr2l, fsr2h, status,2, status,0, prodl, prodh, cstack
  2118 ;; Tracked objects:
  2119 ;;		On entry : 0/0
  2120 ;;		On exit  : 0/0
  2121 ;;		Unchanged: 0/0
  2122 ;; Data sizes:     COMRAM   BANK0   BANK1   BANK2   BANK3   BANK4   BANK5   BANK6   BANK7   BANK8   BANK9  BANK10  BANK1
      +1  BANK12  BANK13  BANK14  BANK15
  2123 ;;      Params:         0       0       0       0       0       0       0       0       0       0       0       0       
      +0       0       0       0       0
  2124 ;;      Locals:         0       0       0       0       0       0       0       0       0       0       0       0       
      +0       0       0       0       0
  2125 ;;      Temps:          0       0       0       0       0       0       0       0       0       0       0       0       
      +0       0       0       0       0
  2126 ;;      Totals:         0       0       0       0       0       0       0       0       0       0       0       0       
      +0       0       0       0       0
  2127 ;;Total ram usage:        0 bytes
  2128 ;; Hardware stack levels used:    1
  2129 ;; Hardware stack levels required when called:   11
  2130 ;; This function calls:
  2131 ;;		_LAT_to_Arr
  2132 ;;		___awdiv
  2133 ;; This function is called by:
  2134 ;;		_TEM
  2135 ;; This function uses a non-reentrant model
  2136 ;;
  2137                           
  2138                           	psect	text7
  2139  002BB2                     __ptext7:
  2140                           	callstack 0
  2141  002BB2                     _CDM:
  2142                           	callstack 18
  2143  002BB2                     
  2144                           ;../../Desktop/336/the3/the3.c: 390:             row=1;
  2145  002BB2  0E00               	movlw	0
  2146  002BB4  6E95               	movwf	149,c	;volatile
  2147                           
  2148                           ;../../Desktop/336/the3/the3.c: 391:             col=0;
  2149  002BB6  0E00               	movlw	0
  2150  002BB8  6E89               	movwf	137,c	;volatile
  2151                           
  2152                           ;../../Desktop/336/the3/the3.c: 392:             charNum++;
  2153  002BBA  0E00               	movlw	0
  2154  002BBC  6E8A               	movwf	138,c	;volatile
  2155                           
  2156                           ;../../Desktop/336/the3/the3.c: 393:             LAT_to_Arr();
  2157  002BBE  0E00               	movlw	0
  2158  002BC0  6E8B               	movwf	139,c	;volatile
  2159                           
  2160                           ;../../Desktop/336/the3/the3.c: 394:             LATA=0;
  2161  002BC2  0E00               	movlw	0
  2162  002BC4  6E8C               	movwf	140,c	;volatile
  2163  002BC6                     l3073:
  2164                           
  2165                           ;../../Desktop/336/the3/the3.c: 397:             LATD=0;
  2166  002BC6  82C2               	bsf	4034,1,c	;volatile
  2167  002BC8                     
  2168                           ;../../Desktop/336/the3/the3.c: 398:             flag=0;
  2169  002BC8  0101               	movlb	1	; () banked
  2170  002BCA  B170               	btfsc	_flag& (0+255),0,b
  2171  002BCC  EFEA  F015         	goto	u2831
  2172  002BD0  EFEC  F015         	goto	u2830
  2173  002BD4                     u2831:
  2174  002BD4  EFEF  F015         	goto	l3079
  2175  002BD8                     u2830:
  2176  002BD8                     
  2177                           ; BSR set to: 1
  2178                           ;../../Desktop/336/the3/the3.c: 399:             return;
  2179  002BD8  9C8C               	bcf	140,6,c	;volatile
  2180                           
  2181                           ;../../Desktop/336/the3/the3.c: 400:         }
  2182  002BDA  EFF0  F015         	goto	l3081
  2183  002BDE                     l3079:
  2184                           
  2185                           ; BSR set to: 1
  2186                           ;../../Desktop/336/the3/the3.c: 402:             while(PORTEbits.RE4);
  2187  002BDE  8C8C               	bsf	140,6,c	;volatile
  2188  002BE0                     l3081:
  2189                           
  2190                           ; BSR set to: 1
  2191                           ;../../Desktop/336/the3/the3.c: 404: 
  2192  002BE0  AA84               	btfss	132,5,c	;volatile
  2193  002BE2  EFF5  F015         	goto	u2841
  2194  002BE6  EFF7  F015         	goto	u2840
  2195  002BEA                     u2841:
  2196  002BEA  EF1A  F016         	goto	l193
  2197  002BEE                     u2840:
  2198  002BEE                     l194:
  2199  002BEE  BA84               	btfsc	132,5,c	;volatile
  2200  002BF0  EFFC  F015         	goto	u2851
  2201  002BF4  EFFE  F015         	goto	u2850
  2202  002BF8                     u2851:
  2203  002BF8  EFF7  F015         	goto	l194
  2204  002BFC                     u2850:
  2205  002BFC                     
  2206                           ;../../Desktop/336/the3/the3.c: 406:                 if(LATA & row){
  2207  002BFC  0E00               	movlw	0
  2208  002BFE  0100               	movlb	0	; () banked
  2209  002C00  6FCF               	movwf	(_row+1)& (0+255),b
  2210  002C02  0E01               	movlw	1
  2211  002C04  6FCE               	movwf	_row& (0+255),b
  2212                           
  2213                           ;../../Desktop/336/the3/the3.c: 407:                     LATA &= ~row;
  2214  002C06  0E00               	movlw	0
  2215  002C08  6FD9               	movwf	(_col+1)& (0+255),b
  2216  002C0A  0E00               	movlw	0
  2217  002C0C  6FD8               	movwf	_col& (0+255),b
  2218  002C0E                     
  2219                           ; BSR set to: 0
  2220                           ;../../Desktop/336/the3/the3.c: 408:                 }
  2221  002C0E  4BD6               	infsnz	_charNum& (0+255),f,b
  2222  002C10  2BD7               	incf	(_charNum+1)& (0+255),f,b
  2223  002C12                     
  2224                           ; BSR set to: 0
  2225                           ;../../Desktop/336/the3/the3.c: 409:                 else{
  2226  002C12  ECB3  F010         	call	_LAT_to_Arr	;wreg free
  2227  002C16                     
  2228                           ;../../Desktop/336/the3/the3.c: 410:                     LATA|=row;
  2229  002C16  0E00               	movlw	0
  2230  002C18  6E89               	movwf	137,c	;volatile
  2231  002C1A                     
  2232                           ;../../Desktop/336/the3/the3.c: 411:                 }
  2233  002C1A  0E00               	movlw	0
  2234  002C1C  6E8A               	movwf	138,c	;volatile
  2235  002C1E                     
  2236                           ;../../Desktop/336/the3/the3.c: 412:             }
  2237  002C1E  0E00               	movlw	0
  2238  002C20  6E8B               	movwf	139,c	;volatile
  2239  002C22                     
  2240                           ;../../Desktop/336/the3/the3.c: 413:             if(col==1){
  2241  002C22  0E00               	movlw	0
  2242  002C24  6E8C               	movwf	140,c	;volatile
  2243  002C26                     
  2244                           ;../../Desktop/336/the3/the3.c: 414:                 if(LATB & row){
  2245  002C26  0E00               	movlw	0
  2246  002C28  0101               	movlb	1	; () banked
  2247  002C2A  6F71               	movwf	(_flag+1)& (0+255),b
  2248  002C2C  0E00               	movlw	0
  2249  002C2E  6F70               	movwf	_flag& (0+255),b
  2250  002C30  EF2D  F017         	goto	l197
  2251  002C34                     l193:
  2252                           
  2253                           ; BSR set to: 1
  2254                           ;../../Desktop/336/the3/the3.c: 417:                 else{
  2255  002C34  A884               	btfss	132,4,c	;volatile
  2256  002C36  EF1F  F016         	goto	u2861
  2257  002C3A  EF21  F016         	goto	u2860
  2258  002C3E                     u2861:
  2259  002C3E  EFA1  F016         	goto	l3135
  2260  002C42                     u2860:
  2261  002C42                     l199:
  2262  002C42  B884               	btfsc	132,4,c	;volatile
  2263  002C44  EF26  F016         	goto	u2871
  2264  002C48  EF28  F016         	goto	u2870
  2265  002C4C                     u2871:
  2266  002C4C  EF21  F016         	goto	l199
  2267  002C50                     u2870:
  2268  002C50                     
  2269                           ;../../Desktop/336/the3/the3.c: 421:             if(col==2){
  2270  002C50  0100               	movlb	0	; () banked
  2271  002C52  51D8               	movf	_col& (0+255),w,b
  2272  002C54  11D9               	iorwf	(_col+1)& (0+255),w,b
  2273  002C56  A4D8               	btfss	status,2,c
  2274  002C58  EF30  F016         	goto	u2881
  2275  002C5C  EF32  F016         	goto	u2880
  2276  002C60                     u2881:
  2277  002C60  EF43  F016         	goto	l202
  2278  002C64                     u2880:
  2279  002C64                     
  2280                           ; BSR set to: 0
  2281                           ;../../Desktop/336/the3/the3.c: 422:                 if(LATC & row){
  2282  002C64  5089               	movf	137,w,c	;volatile
  2283  002C66  15CE               	andwf	_row& (0+255),w,b
  2284  002C68  0900               	iorlw	0
  2285  002C6A  B4D8               	btfsc	status,2,c
  2286  002C6C  EF3A  F016         	goto	u2891
  2287  002C70  EF3C  F016         	goto	u2890
  2288  002C74                     u2891:
  2289  002C74  EF41  F016         	goto	l3111
  2290  002C78                     u2890:
  2291  002C78                     
  2292                           ; BSR set to: 0
  2293                           ;../../Desktop/336/the3/the3.c: 423:                     LATC &= ~row;
  2294  002C78  51CE               	movf	_row& (0+255),w,b	;volatile
  2295  002C7A  0AFF               	xorlw	255
  2296  002C7C  1689               	andwf	137,f,c	;volatile
  2297                           
  2298                           ;../../Desktop/336/the3/the3.c: 424:                 }
  2299  002C7E  EF43  F016         	goto	l202
  2300  002C82                     l3111:
  2301                           
  2302                           ; BSR set to: 0
  2303                           ;../../Desktop/336/the3/the3.c: 426:                     LATC|=row;
  2304  002C82  51CE               	movf	_row& (0+255),w,b	;volatile
  2305  002C84  1289               	iorwf	137,f,c	;volatile
  2306  002C86                     l202:
  2307                           
  2308                           ; BSR set to: 0
  2309                           ;../../Desktop/336/the3/the3.c: 429:             if(col==3){
  2310  002C86  05D8               	decf	_col& (0+255),w,b
  2311  002C88  11D9               	iorwf	(_col+1)& (0+255),w,b
  2312  002C8A  A4D8               	btfss	status,2,c
  2313  002C8C  EF4A  F016         	goto	u2901
  2314  002C90  EF4C  F016         	goto	u2900
  2315  002C94                     u2901:
  2316  002C94  EF5D  F016         	goto	l205
  2317  002C98                     u2900:
  2318  002C98                     
  2319                           ; BSR set to: 0
  2320                           ;../../Desktop/336/the3/the3.c: 430: 
  2321  002C98  508A               	movf	138,w,c	;volatile
  2322  002C9A  15CE               	andwf	_row& (0+255),w,b
  2323  002C9C  0900               	iorlw	0
  2324  002C9E  B4D8               	btfsc	status,2,c
  2325  002CA0  EF54  F016         	goto	u2911
  2326  002CA4  EF56  F016         	goto	u2910
  2327  002CA8                     u2911:
  2328  002CA8  EF5B  F016         	goto	l3117
  2329  002CAC                     u2910:
  2330  002CAC                     
  2331                           ; BSR set to: 0
  2332                           ;../../Desktop/336/the3/the3.c: 431:                 if(row==64) flag++;
  2333  002CAC  51CE               	movf	_row& (0+255),w,b	;volatile
  2334  002CAE  0AFF               	xorlw	255
  2335  002CB0  168A               	andwf	138,f,c	;volatile
  2336                           
  2337                           ;../../Desktop/336/the3/the3.c: 432: 
  2338  002CB2  EF5D  F016         	goto	l205
  2339  002CB6                     l3117:
  2340                           
  2341                           ; BSR set to: 0
  2342                           ;../../Desktop/336/the3/the3.c: 434:                     LATD &= ~row;
  2343  002CB6  51CE               	movf	_row& (0+255),w,b	;volatile
  2344  002CB8  128A               	iorwf	138,f,c	;volatile
  2345  002CBA                     l205:
  2346                           
  2347                           ; BSR set to: 0
  2348                           ;../../Desktop/336/the3/the3.c: 437:                     LATD|=row;
  2349  002CBA  0E02               	movlw	2
  2350  002CBC  19D8               	xorwf	_col& (0+255),w,b
  2351  002CBE  11D9               	iorwf	(_col+1)& (0+255),w,b
  2352  002CC0  A4D8               	btfss	status,2,c
  2353  002CC2  EF65  F016         	goto	u2921
  2354  002CC6  EF67  F016         	goto	u2920
  2355  002CCA                     u2921:
  2356  002CCA  EF78  F016         	goto	l208
  2357  002CCE                     u2920:
  2358  002CCE                     
  2359                           ; BSR set to: 0
  2360                           ;../../Desktop/336/the3/the3.c: 438:                 }
  2361  002CCE  508B               	movf	139,w,c	;volatile
  2362  002CD0  15CE               	andwf	_row& (0+255),w,b
  2363  002CD2  0900               	iorlw	0
  2364  002CD4  B4D8               	btfsc	status,2,c
  2365  002CD6  EF6F  F016         	goto	u2931
  2366  002CDA  EF71  F016         	goto	u2930
  2367  002CDE                     u2931:
  2368  002CDE  EF76  F016         	goto	l3123
  2369  002CE2                     u2930:
  2370  002CE2                     
  2371                           ; BSR set to: 0
  2372                           ;../../Desktop/336/the3/the3.c: 439:             }
  2373  002CE2  51CE               	movf	_row& (0+255),w,b	;volatile
  2374  002CE4  0AFF               	xorlw	255
  2375  002CE6  168B               	andwf	139,f,c	;volatile
  2376                           
  2377                           ;../../Desktop/336/the3/the3.c: 440: 
  2378  002CE8  EF78  F016         	goto	l208
  2379  002CEC                     l3123:
  2380                           
  2381                           ; BSR set to: 0
  2382                           ;../../Desktop/336/the3/the3.c: 442:         if(PORTEbits.RE2){
  2383  002CEC  51CE               	movf	_row& (0+255),w,b	;volatile
  2384  002CEE  128B               	iorwf	139,f,c	;volatile
  2385  002CF0                     l208:
  2386                           
  2387                           ; BSR set to: 0
  2388                           ;../../Desktop/336/the3/the3.c: 445:             if(row>1) row/=2;
  2389  002CF0  0E03               	movlw	3
  2390  002CF2  19D8               	xorwf	_col& (0+255),w,b
  2391  002CF4  11D9               	iorwf	(_col+1)& (0+255),w,b
  2392  002CF6  A4D8               	btfss	status,2,c
  2393  002CF8  EF80  F016         	goto	u2941
  2394  002CFC  EF82  F016         	goto	u2940
  2395  002D00                     u2941:
  2396  002D00  EFA1  F016         	goto	l3135
  2397  002D04                     u2940:
  2398  002D04                     
  2399                           ; BSR set to: 0
  2400                           ;../../Desktop/336/the3/the3.c: 447:         }
  2401  002D04  0E40               	movlw	64
  2402  002D06  19CE               	xorwf	_row& (0+255),w,b
  2403  002D08  11CF               	iorwf	(_row+1)& (0+255),w,b
  2404  002D0A  A4D8               	btfss	status,2,c
  2405  002D0C  EF8A  F016         	goto	u2951
  2406  002D10  EF8C  F016         	goto	u2950
  2407  002D14                     u2951:
  2408  002D14  EF8F  F016         	goto	l3129
  2409  002D18                     u2950:
  2410  002D18                     
  2411                           ; BSR set to: 0
  2412  002D18  0101               	movlb	1	; () banked
  2413  002D1A  4B70               	infsnz	_flag& (0+255),f,b
  2414  002D1C  2B71               	incf	(_flag+1)& (0+255),f,b
  2415  002D1E                     l3129:
  2416                           
  2417                           ;../../Desktop/336/the3/the3.c: 449:             while(PORTEbits.RE1);
  2418  002D1E  508C               	movf	140,w,c	;volatile
  2419  002D20  0100               	movlb	0	; () banked
  2420  002D22  15CE               	andwf	_row& (0+255),w,b
  2421  002D24  0900               	iorlw	0
  2422  002D26  B4D8               	btfsc	status,2,c
  2423  002D28  EF98  F016         	goto	u2961
  2424  002D2C  EF9A  F016         	goto	u2960
  2425  002D30                     u2961:
  2426  002D30  EF9F  F016         	goto	l3133
  2427  002D34                     u2960:
  2428  002D34                     
  2429                           ; BSR set to: 0
  2430                           ;../../Desktop/336/the3/the3.c: 450: 
  2431  002D34  51CE               	movf	_row& (0+255),w,b	;volatile
  2432  002D36  0AFF               	xorlw	255
  2433  002D38  168C               	andwf	140,f,c	;volatile
  2434                           
  2435                           ;../../Desktop/336/the3/the3.c: 451:             if(row<128) row*=2;
  2436  002D3A  EFA1  F016         	goto	l3135
  2437  002D3E                     l3133:
  2438                           
  2439                           ; BSR set to: 0
  2440                           ;../../Desktop/336/the3/the3.c: 453:         if(PORTEbits.RE3){
  2441  002D3E  51CE               	movf	_row& (0+255),w,b	;volatile
  2442  002D40  128C               	iorwf	140,f,c	;volatile
  2443  002D42                     l3135:
  2444                           
  2445                           ;../../Desktop/336/the3/the3.c: 458:         if(PORTEbits.RE0){
  2446  002D42  A484               	btfss	132,2,c	;volatile
  2447  002D44  EFA6  F016         	goto	u2971
  2448  002D48  EFA8  F016         	goto	u2970
  2449  002D4C                     u2971:
  2450  002D4C  EFCD  F016         	goto	l3143
  2451  002D50                     u2970:
  2452  002D50                     l216:
  2453  002D50  B484               	btfsc	132,2,c	;volatile
  2454  002D52  EFAD  F016         	goto	u2981
  2455  002D56  EFAF  F016         	goto	u2980
  2456  002D5A                     u2981:
  2457  002D5A  EFA8  F016         	goto	l216
  2458  002D5E                     u2980:
  2459  002D5E                     
  2460                           ;../../Desktop/336/the3/the3.c: 461:             if(col<3) col++;
  2461  002D5E  0100               	movlb	0	; () banked
  2462  002D60  BFCF               	btfsc	(_row+1)& (0+255),7,b
  2463  002D62  EFBC  F016         	goto	u2991
  2464  002D66  51CF               	movf	(_row+1)& (0+255),w,b
  2465  002D68  E109               	bnz	u2990
  2466  002D6A  0E02               	movlw	2
  2467  002D6C  5DCE               	subwf	_row& (0+255),w,b
  2468  002D6E  A0D8               	btfss	status,0,c
  2469  002D70  EFBC  F016         	goto	u2991
  2470  002D74  EFBE  F016         	goto	u2990
  2471  002D78                     u2991:
  2472  002D78  EFCD  F016         	goto	l3143
  2473  002D7C                     u2990:
  2474  002D7C                     
  2475                           ; BSR set to: 0
  2476  002D7C  C0CE  F19E         	movff	_row,___awdiv@dividend
  2477  002D80  C0CF  F19F         	movff	_row+1,___awdiv@dividend+1
  2478  002D84  0E00               	movlw	0
  2479  002D86  0101               	movlb	1	; () banked
  2480  002D88  6FA1               	movwf	(___awdiv@divisor+1)& (0+255),b
  2481  002D8A  0E02               	movlw	2
  2482  002D8C  6FA0               	movwf	___awdiv@divisor& (0+255),b
  2483  002D8E  EC56  F01A         	call	___awdiv	;wreg free
  2484  002D92  C19E  F0CE         	movff	?___awdiv,_row
  2485  002D96  C19F  F0CF         	movff	?___awdiv+1,_row+1
  2486  002D9A                     l3143:
  2487                           
  2488                           ;../../Desktop/336/the3/the3.c: 464: }
  2489  002D9A  A284               	btfss	132,1,c	;volatile
  2490  002D9C  EFD2  F016         	goto	u3001
  2491  002DA0  EFD4  F016         	goto	u3000
  2492  002DA4                     u3001:
  2493  002DA4  EFED  F016         	goto	l3151
  2494  002DA8                     u3000:
  2495  002DA8                     l221:
  2496  002DA8  B284               	btfsc	132,1,c	;volatile
  2497  002DAA  EFD9  F016         	goto	u3011
  2498  002DAE  EFDB  F016         	goto	u3010
  2499  002DB2                     u3011:
  2500  002DB2  EFD4  F016         	goto	l221
  2501  002DB6                     u3010:
  2502  002DB6                     
  2503                           ;../../Desktop/336/the3/the3.c: 467: 
  2504  002DB6  0100               	movlb	0	; () banked
  2505  002DB8  BFCF               	btfsc	(_row+1)& (0+255),7,b
  2506  002DBA  EFEA  F016         	goto	u3020
  2507  002DBE  51CF               	movf	(_row+1)& (0+255),w,b
  2508  002DC0  E107               	bnz	u3021
  2509  002DC2  0E80               	movlw	128
  2510  002DC4  5DCE               	subwf	_row& (0+255),w,b
  2511  002DC6  B0D8               	btfsc	status,0,c
  2512  002DC8  EFE8  F016         	goto	u3021
  2513  002DCC  EFEA  F016         	goto	u3020
  2514  002DD0                     u3021:
  2515  002DD0  EFED  F016         	goto	l3151
  2516  002DD4                     u3020:
  2517  002DD4                     
  2518                           ; BSR set to: 0
  2519  002DD4  90D8               	bcf	status,0,c
  2520  002DD6  37CE               	rlcf	_row& (0+255),f,b
  2521  002DD8  37CF               	rlcf	(_row+1)& (0+255),f,b
  2522  002DDA                     l3151:
  2523                           
  2524                           ;../../Desktop/336/the3/the3.c: 469:     LATB=0;
  2525  002DDA  A684               	btfss	132,3,c	;volatile
  2526  002DDC  EFF2  F016         	goto	u3031
  2527  002DE0  EFF4  F016         	goto	u3030
  2528  002DE4                     u3031:
  2529  002DE4  EF0C  F017         	goto	l3159
  2530  002DE8                     u3030:
  2531  002DE8                     l226:
  2532  002DE8  B684               	btfsc	132,3,c	;volatile
  2533  002DEA  EFF9  F016         	goto	u3041
  2534  002DEE  EFFB  F016         	goto	u3040
  2535  002DF2                     u3041:
  2536  002DF2  EFF4  F016         	goto	l226
  2537  002DF6                     u3040:
  2538  002DF6                     
  2539                           ;../../Desktop/336/the3/the3.c: 472: 
  2540  002DF6  0100               	movlb	0	; () banked
  2541  002DF8  BFD9               	btfsc	(_col+1)& (0+255),7,b
  2542  002DFA  EF07  F017         	goto	u3051
  2543  002DFE  51D9               	movf	(_col+1)& (0+255),w,b
  2544  002E00  E108               	bnz	u3050
  2545  002E02  05D8               	decf	_col& (0+255),w,b
  2546  002E04  A0D8               	btfss	status,0,c
  2547  002E06  EF07  F017         	goto	u3051
  2548  002E0A  EF09  F017         	goto	u3050
  2549  002E0E                     u3051:
  2550  002E0E  EF0C  F017         	goto	l3159
  2551  002E12                     u3050:
  2552  002E12                     
  2553                           ; BSR set to: 0
  2554  002E12  07D8               	decf	_col& (0+255),f,b
  2555  002E14  A0D8               	btfss	status,0,c
  2556  002E16  07D9               	decf	(_col+1)& (0+255),f,b
  2557  002E18                     l3159:
  2558                           
  2559                           ;../../Desktop/336/the3/the3.c: 474:     PORTBbits.RB2 = 0;
  2560  002E18  A084               	btfss	132,0,c	;volatile
  2561  002E1A  EF11  F017         	goto	u3061
  2562  002E1E  EF13  F017         	goto	u3060
  2563  002E22                     u3061:
  2564  002E22  EFE3  F015         	goto	l3073
  2565  002E26                     u3060:
  2566  002E26                     l231:
  2567  002E26  B084               	btfsc	132,0,c	;volatile
  2568  002E28  EF18  F017         	goto	u3071
  2569  002E2C  EF1A  F017         	goto	u3070
  2570  002E30                     u3071:
  2571  002E30  EF13  F017         	goto	l231
  2572  002E34                     u3070:
  2573  002E34                     
  2574                           ;../../Desktop/336/the3/the3.c: 477:     _delay((unsigned long)((10)*(40000000/4000.0)))
      +                          ;
  2575  002E34  0100               	movlb	0	; () banked
  2576  002E36  BFD9               	btfsc	(_col+1)& (0+255),7,b
  2577  002E38  EF29  F017         	goto	u3080
  2578  002E3C  51D9               	movf	(_col+1)& (0+255),w,b
  2579  002E3E  E107               	bnz	u3081
  2580  002E40  0E03               	movlw	3
  2581  002E42  5DD8               	subwf	_col& (0+255),w,b
  2582  002E44  B0D8               	btfsc	status,0,c
  2583  002E46  EF27  F017         	goto	u3081
  2584  002E4A  EF29  F017         	goto	u3080
  2585  002E4E                     u3081:
  2586  002E4E  EFE3  F015         	goto	l3073
  2587  002E52                     u3080:
  2588  002E52                     
  2589                           ; BSR set to: 0
  2590  002E52  4BD8               	infsnz	_col& (0+255),f,b
  2591  002E54  2BD9               	incf	(_col+1)& (0+255),f,b
  2592  002E56  EFE3  F015         	goto	l3073
  2593  002E5A                     l197:
  2594                           
  2595                           ; BSR set to: 1
  2596  002E5A  0012               	return		;funcret
  2597  002E5C                     __end_of_CDM:
  2598                           	callstack 0
  2599                           
  2600 ;; *************** function ___awdiv *****************
  2601 ;; Defined at:
  2602 ;;		line 7 in file "/opt/microchip/xc8/v2.30/pic/sources/c99/common/awdiv.c"
  2603 ;; Parameters:    Size  Location     Type
  2604 ;;  dividend        2    0[BANK1 ] int 
  2605 ;;  divisor         2    2[BANK1 ] int 
  2606 ;; Auto vars:     Size  Location     Type
  2607 ;;  quotient        2    6[BANK1 ] int 
  2608 ;;  sign            1    5[BANK1 ] unsigned char 
  2609 ;;  counter         1    4[BANK1 ] unsigned char 
  2610 ;; Return value:  Size  Location     Type
  2611 ;;                  2    0[BANK1 ] int 
  2612 ;; Registers used:
  2613 ;;		wreg, status,2, status,0
  2614 ;; Tracked objects:
  2615 ;;		On entry : 0/0
  2616 ;;		On exit  : 0/0
  2617 ;;		Unchanged: 0/0
  2618 ;; Data sizes:     COMRAM   BANK0   BANK1   BANK2   BANK3   BANK4   BANK5   BANK6   BANK7   BANK8   BANK9  BANK10  BANK1
      +1  BANK12  BANK13  BANK14  BANK15
  2619 ;;      Params:         0       0       4       0       0       0       0       0       0       0       0       0       
      +0       0       0       0       0
  2620 ;;      Locals:         0       0       4       0       0       0       0       0       0       0       0       0       
      +0       0       0       0       0
  2621 ;;      Temps:          0       0       0       0       0       0       0       0       0       0       0       0       
      +0       0       0       0       0
  2622 ;;      Totals:         0       0       8       0       0       0       0       0       0       0       0       0       
      +0       0       0       0       0
  2623 ;;Total ram usage:        8 bytes
  2624 ;; Hardware stack levels used:    1
  2625 ;; Hardware stack levels required when called:    8
  2626 ;; This function calls:
  2627 ;;		Nothing
  2628 ;; This function is called by:
  2629 ;;		_CDM
  2630 ;; This function uses a non-reentrant model
  2631 ;;
  2632                           
  2633                           	psect	text8
  2634  0034AC                     __ptext8:
  2635                           	callstack 0
  2636  0034AC                     ___awdiv:
  2637                           	callstack 20
  2638  0034AC  0E00               	movlw	0
  2639  0034AE  0101               	movlb	1	; () banked
  2640  0034B0  6FA3               	movwf	___awdiv@sign& (0+255),b
  2641  0034B2                     
  2642                           ; BSR set to: 1
  2643  0034B2  BFA1               	btfsc	(___awdiv@divisor+1)& (0+255),7,b
  2644  0034B4  EF60  F01A         	goto	u2580
  2645  0034B8  EF5E  F01A         	goto	u2581
  2646  0034BC                     u2581:
  2647  0034BC  EF66  F01A         	goto	l2863
  2648  0034C0                     u2580:
  2649  0034C0                     
  2650                           ; BSR set to: 1
  2651  0034C0  6DA0               	negf	___awdiv@divisor& (0+255),b
  2652  0034C2  1FA1               	comf	(___awdiv@divisor+1)& (0+255),f,b
  2653  0034C4  B0D8               	btfsc	status,0,c
  2654  0034C6  2BA1               	incf	(___awdiv@divisor+1)& (0+255),f,b
  2655  0034C8                     
  2656                           ; BSR set to: 1
  2657  0034C8  0E01               	movlw	1
  2658  0034CA  6FA3               	movwf	___awdiv@sign& (0+255),b
  2659  0034CC                     l2863:
  2660                           
  2661                           ; BSR set to: 1
  2662  0034CC  BF9F               	btfsc	(___awdiv@dividend+1)& (0+255),7,b
  2663  0034CE  EF6D  F01A         	goto	u2590
  2664  0034D2  EF6B  F01A         	goto	u2591
  2665  0034D6                     u2591:
  2666  0034D6  EF73  F01A         	goto	l2869
  2667  0034DA                     u2590:
  2668  0034DA                     
  2669                           ; BSR set to: 1
  2670  0034DA  6D9E               	negf	___awdiv@dividend& (0+255),b
  2671  0034DC  1F9F               	comf	(___awdiv@dividend+1)& (0+255),f,b
  2672  0034DE  B0D8               	btfsc	status,0,c
  2673  0034E0  2B9F               	incf	(___awdiv@dividend+1)& (0+255),f,b
  2674  0034E2                     
  2675                           ; BSR set to: 1
  2676  0034E2  0E01               	movlw	1
  2677  0034E4  1BA3               	xorwf	___awdiv@sign& (0+255),f,b
  2678  0034E6                     l2869:
  2679                           
  2680                           ; BSR set to: 1
  2681  0034E6  0E00               	movlw	0
  2682  0034E8  6FA5               	movwf	(___awdiv@quotient+1)& (0+255),b
  2683  0034EA  0E00               	movlw	0
  2684  0034EC  6FA4               	movwf	___awdiv@quotient& (0+255),b
  2685  0034EE                     
  2686                           ; BSR set to: 1
  2687  0034EE  51A0               	movf	___awdiv@divisor& (0+255),w,b
  2688  0034F0  11A1               	iorwf	(___awdiv@divisor+1)& (0+255),w,b
  2689  0034F2  B4D8               	btfsc	status,2,c
  2690  0034F4  EF7E  F01A         	goto	u2601
  2691  0034F8  EF80  F01A         	goto	u2600
  2692  0034FC                     u2601:
  2693  0034FC  EFA8  F01A         	goto	l2891
  2694  003500                     u2600:
  2695  003500                     
  2696                           ; BSR set to: 1
  2697  003500  0E01               	movlw	1
  2698  003502  6FA2               	movwf	___awdiv@counter& (0+255),b
  2699  003504  EF88  F01A         	goto	l2877
  2700  003508                     l2875:
  2701                           
  2702                           ; BSR set to: 1
  2703  003508  90D8               	bcf	status,0,c
  2704  00350A  37A0               	rlcf	___awdiv@divisor& (0+255),f,b
  2705  00350C  37A1               	rlcf	(___awdiv@divisor+1)& (0+255),f,b
  2706  00350E  2BA2               	incf	___awdiv@counter& (0+255),f,b
  2707  003510                     l2877:
  2708                           
  2709                           ; BSR set to: 1
  2710  003510  AFA1               	btfss	(___awdiv@divisor+1)& (0+255),7,b
  2711  003512  EF8D  F01A         	goto	u2611
  2712  003516  EF8F  F01A         	goto	u2610
  2713  00351A                     u2611:
  2714  00351A  EF84  F01A         	goto	l2875
  2715  00351E                     u2610:
  2716  00351E                     l2879:
  2717                           
  2718                           ; BSR set to: 1
  2719  00351E  90D8               	bcf	status,0,c
  2720  003520  37A4               	rlcf	___awdiv@quotient& (0+255),f,b
  2721  003522  37A5               	rlcf	(___awdiv@quotient+1)& (0+255),f,b
  2722  003524                     
  2723                           ; BSR set to: 1
  2724  003524  51A0               	movf	___awdiv@divisor& (0+255),w,b
  2725  003526  5D9E               	subwf	___awdiv@dividend& (0+255),w,b
  2726  003528  51A1               	movf	(___awdiv@divisor+1)& (0+255),w,b
  2727  00352A  599F               	subwfb	(___awdiv@dividend+1)& (0+255),w,b
  2728  00352C  A0D8               	btfss	status,0,c
  2729  00352E  EF9B  F01A         	goto	u2621
  2730  003532  EF9D  F01A         	goto	u2620
  2731  003536                     u2621:
  2732  003536  EFA2  F01A         	goto	l2887
  2733  00353A                     u2620:
  2734  00353A                     
  2735                           ; BSR set to: 1
  2736  00353A  51A0               	movf	___awdiv@divisor& (0+255),w,b
  2737  00353C  5F9E               	subwf	___awdiv@dividend& (0+255),f,b
  2738  00353E  51A1               	movf	(___awdiv@divisor+1)& (0+255),w,b
  2739  003540  5B9F               	subwfb	(___awdiv@dividend+1)& (0+255),f,b
  2740  003542                     
  2741                           ; BSR set to: 1
  2742  003542  81A4               	bsf	___awdiv@quotient& (0+255),0,b
  2743  003544                     l2887:
  2744                           
  2745                           ; BSR set to: 1
  2746  003544  90D8               	bcf	status,0,c
  2747  003546  33A1               	rrcf	(___awdiv@divisor+1)& (0+255),f,b
  2748  003548  33A0               	rrcf	___awdiv@divisor& (0+255),f,b
  2749  00354A                     
  2750                           ; BSR set to: 1
  2751  00354A  2FA2               	decfsz	___awdiv@counter& (0+255),f,b
  2752  00354C  EF8F  F01A         	goto	l2879
  2753  003550                     l2891:
  2754                           
  2755                           ; BSR set to: 1
  2756  003550  51A3               	movf	___awdiv@sign& (0+255),w,b
  2757  003552  B4D8               	btfsc	status,2,c
  2758  003554  EFAE  F01A         	goto	u2631
  2759  003558  EFB0  F01A         	goto	u2630
  2760  00355C                     u2631:
  2761  00355C  EFB4  F01A         	goto	l2895
  2762  003560                     u2630:
  2763  003560                     
  2764                           ; BSR set to: 1
  2765  003560  6DA4               	negf	___awdiv@quotient& (0+255),b
  2766  003562  1FA5               	comf	(___awdiv@quotient+1)& (0+255),f,b
  2767  003564  B0D8               	btfsc	status,0,c
  2768  003566  2BA5               	incf	(___awdiv@quotient+1)& (0+255),f,b
  2769  003568                     l2895:
  2770                           
  2771                           ; BSR set to: 1
  2772  003568  C1A4  F19E         	movff	___awdiv@quotient,?___awdiv
  2773  00356C  C1A5  F19F         	movff	___awdiv@quotient+1,?___awdiv+1
  2774  003570                     
  2775                           ; BSR set to: 1
  2776  003570  0012               	return		;funcret
  2777  003572                     __end_of___awdiv:
  2778                           	callstack 0
  2779                           
  2780 ;; *************** function _LAT_to_Arr *****************
  2781 ;; Defined at:
  2782 ;;		line 163 in file "../../Desktop/336/the3/the3.c"
  2783 ;; Parameters:    Size  Location     Type
  2784 ;;		None
  2785 ;; Auto vars:     Size  Location     Type
  2786 ;;  i               2    7[BANK1 ] int 
  2787 ;;  custom_char     8    0        unsigned char [8]
  2788 ;;  d_result        1   12[BANK1 ] unsigned char 
  2789 ;;  c_result        1   11[BANK1 ] unsigned char 
  2790 ;;  b_result        1   10[BANK1 ] unsigned char 
  2791 ;;  a_result        1    9[BANK1 ] unsigned char 
  2792 ;; Return value:  Size  Location     Type
  2793 ;;                  1    wreg      void 
  2794 ;; Registers used:
  2795 ;;		wreg, fsr2l, fsr2h, status,2, status,0, prodl, prodh, cstack
  2796 ;; Tracked objects:
  2797 ;;		On entry : 0/0
  2798 ;;		On exit  : 0/0
  2799 ;;		Unchanged: 0/0
  2800 ;; Data sizes:     COMRAM   BANK0   BANK1   BANK2   BANK3   BANK4   BANK5   BANK6   BANK7   BANK8   BANK9  BANK10  BANK1
      +1  BANK12  BANK13  BANK14  BANK15
  2801 ;;      Params:         0       0       0       0       0       0       0       0       0       0       0       0       
      +0       0       0       0       0
  2802 ;;      Locals:         0       0       6       0       0       0       0       0       0       0       0       0       
      +0       0       0       0       0
  2803 ;;      Temps:          0       0       6       0       0       0       0       0       0       0       0       0       
      +0       0       0       0       0
  2804 ;;      Totals:         0       0      12       0       0       0       0       0       0       0       0       0       
      +0       0       0       0       0
  2805 ;;Total ram usage:       12 bytes
  2806 ;; Hardware stack levels used:    1
  2807 ;; Hardware stack levels required when called:   10
  2808 ;; This function calls:
  2809 ;;		_SendBusContents
  2810 ;; This function is called by:
  2811 ;;		_CDM
  2812 ;; This function uses a non-reentrant model
  2813 ;;
  2814                           
  2815                           	psect	text9
  2816  002166                     __ptext9:
  2817                           	callstack 0
  2818  002166                     _LAT_to_Arr:
  2819                           	callstack 18
  2820  002166                     
  2821                           ;../../Desktop/336/the3/the3.c: 165:     d_result = d_result << 1;;../../Desktop/336/the
      +                          3/the3.c: 166:     customChars[charNum-1][0] = a_result + b_result + c_result + d_result
      +                          ;;../../Desktop/336/the3/the3.c: 167: ;../../Desktop/336/the3/the3.c: 168:     a_result 
      +                          = LATA & 0b00000010;;../../Desktop/336/the3/the3.c: 169:     a_result = a_result << 3;;.
      +                          ./../Desktop/336/the3/the3.c: 174:     d_result = LATD & 0b00000010;
  2822  002166  5089               	movf	137,w,c	;volatile
  2823  002168  0B01               	andlw	1
  2824  00216A  0101               	movlb	1	; () banked
  2825  00216C  6FA7               	movwf	LAT_to_Arr@a_result& (0+255),b
  2826                           
  2827                           ;../../Desktop/336/the3/the3.c: 175:     customChars[charNum-1][1] = a_result + b_result
      +                           + c_result + d_result;
  2828  00216E  39A7               	swapf	LAT_to_Arr@a_result& (0+255),w,b
  2829  002170  0BF0               	andlw	240
  2830  002172  6FA7               	movwf	LAT_to_Arr@a_result& (0+255),b
  2831                           
  2832                           ;../../Desktop/336/the3/the3.c: 176: 
  2833  002174  508A               	movf	138,w,c	;volatile
  2834  002176  0B01               	andlw	1
  2835  002178  6FA8               	movwf	LAT_to_Arr@b_result& (0+255),b
  2836                           
  2837                           ;../../Desktop/336/the3/the3.c: 177:     a_result = LATA & 0b00000100;
  2838  00217A  39A8               	swapf	LAT_to_Arr@b_result& (0+255),w,b
  2839  00217C  42E8               	rrncf	wreg,f,c
  2840  00217E  0BF8               	andlw	248
  2841  002180  6FA8               	movwf	LAT_to_Arr@b_result& (0+255),b
  2842                           
  2843                           ;../../Desktop/336/the3/the3.c: 178:     a_result = a_result << 2;
  2844  002182  508B               	movf	139,w,c	;volatile
  2845  002184  0B01               	andlw	1
  2846  002186  6FA9               	movwf	LAT_to_Arr@c_result& (0+255),b
  2847                           
  2848                           ;../../Desktop/336/the3/the3.c: 179:     b_result = LATB & 0b00000100;
  2849  002188  45A9               	rlncf	LAT_to_Arr@c_result& (0+255),w,b
  2850  00218A  46E8               	rlncf	wreg,f,c
  2851  00218C  0BFC               	andlw	252
  2852  00218E  6FA9               	movwf	LAT_to_Arr@c_result& (0+255),b
  2853                           
  2854                           ;../../Desktop/336/the3/the3.c: 180:     b_result = b_result << 1;
  2855  002190  508C               	movf	140,w,c	;volatile
  2856  002192  0B01               	andlw	1
  2857  002194  6FAA               	movwf	LAT_to_Arr@d_result& (0+255),b
  2858                           
  2859                           ;../../Desktop/336/the3/the3.c: 181:     c_result = LATC & 0b00000100;
  2860  002196  51AA               	movf	LAT_to_Arr@d_result& (0+255),w,b
  2861  002198  25AA               	addwf	LAT_to_Arr@d_result& (0+255),w,b
  2862  00219A  6FAA               	movwf	LAT_to_Arr@d_result& (0+255),b
  2863  00219C                     
  2864                           ; BSR set to: 1
  2865                           ;../../Desktop/336/the3/the3.c: 182:     d_result = LATD & 0b00000100;
  2866  00219C  C0D6  F19F         	movff	_charNum,??_LAT_to_Arr
  2867  0021A0  C0D7  F1A0         	movff	_charNum+1,??_LAT_to_Arr+1
  2868  0021A4  90D8               	bcf	status,0,c
  2869  0021A6  379F               	rlcf	??_LAT_to_Arr& (0+255),f,b
  2870  0021A8  37A0               	rlcf	(??_LAT_to_Arr+1)& (0+255),f,b
  2871  0021AA  90D8               	bcf	status,0,c
  2872  0021AC  379F               	rlcf	??_LAT_to_Arr& (0+255),f,b
  2873  0021AE  37A0               	rlcf	(??_LAT_to_Arr+1)& (0+255),f,b
  2874  0021B0  90D8               	bcf	status,0,c
  2875  0021B2  379F               	rlcf	??_LAT_to_Arr& (0+255),f,b
  2876  0021B4  37A0               	rlcf	(??_LAT_to_Arr+1)& (0+255),f,b
  2877  0021B6  0EF8               	movlw	low (_customChars+65528)
  2878  0021B8  259F               	addwf	??_LAT_to_Arr& (0+255),w,b
  2879  0021BA  6ED9               	movwf	fsr2l,c
  2880  0021BC  0E00               	movlw	high (_customChars+65528)
  2881  0021BE  21A0               	addwfc	(??_LAT_to_Arr+1)& (0+255),w,b
  2882  0021C0  6EDA               	movwf	fsr2h,c
  2883  0021C2  51A7               	movf	LAT_to_Arr@a_result& (0+255),w,b
  2884  0021C4  25A8               	addwf	LAT_to_Arr@b_result& (0+255),w,b
  2885  0021C6  25A9               	addwf	LAT_to_Arr@c_result& (0+255),w,b
  2886  0021C8  25AA               	addwf	LAT_to_Arr@d_result& (0+255),w,b
  2887  0021CA  6EDF               	movwf	indf2,c
  2888  0021CC                     
  2889                           ; BSR set to: 1
  2890                           ;../../Desktop/336/the3/the3.c: 184:     customChars[charNum-1][2] = a_result + b_result
      +                           + c_result + d_result;
  2891  0021CC  5089               	movf	137,w,c	;volatile
  2892  0021CE  0B02               	andlw	2
  2893  0021D0  6FA7               	movwf	LAT_to_Arr@a_result& (0+255),b
  2894  0021D2                     
  2895                           ; BSR set to: 1
  2896                           ;../../Desktop/336/the3/the3.c: 185: 
  2897  0021D2  39A7               	swapf	LAT_to_Arr@a_result& (0+255),w,b
  2898  0021D4  42E8               	rrncf	wreg,f,c
  2899  0021D6  0BF8               	andlw	248
  2900  0021D8  6FA7               	movwf	LAT_to_Arr@a_result& (0+255),b
  2901  0021DA                     
  2902                           ; BSR set to: 1
  2903                           ;../../Desktop/336/the3/the3.c: 186: 
  2904  0021DA  508A               	movf	138,w,c	;volatile
  2905  0021DC  0B02               	andlw	2
  2906  0021DE  6FA8               	movwf	LAT_to_Arr@b_result& (0+255),b
  2907  0021E0                     
  2908                           ; BSR set to: 1
  2909                           ;../../Desktop/336/the3/the3.c: 187:     a_result = LATA & 0b00001000;
  2910  0021E0  45A8               	rlncf	LAT_to_Arr@b_result& (0+255),w,b
  2911  0021E2  46E8               	rlncf	wreg,f,c
  2912  0021E4  0BFC               	andlw	252
  2913  0021E6  6FA8               	movwf	LAT_to_Arr@b_result& (0+255),b
  2914  0021E8                     
  2915                           ; BSR set to: 1
  2916                           ;../../Desktop/336/the3/the3.c: 188:     a_result = a_result << 1;
  2917  0021E8  508B               	movf	139,w,c	;volatile
  2918  0021EA  0B02               	andlw	2
  2919  0021EC  6FA9               	movwf	LAT_to_Arr@c_result& (0+255),b
  2920  0021EE                     
  2921                           ; BSR set to: 1
  2922                           ;../../Desktop/336/the3/the3.c: 189:     b_result = LATB & 0b00001000;
  2923  0021EE  51A9               	movf	LAT_to_Arr@c_result& (0+255),w,b
  2924  0021F0  25A9               	addwf	LAT_to_Arr@c_result& (0+255),w,b
  2925  0021F2  6FA9               	movwf	LAT_to_Arr@c_result& (0+255),b
  2926  0021F4                     
  2927                           ; BSR set to: 1
  2928                           ;../../Desktop/336/the3/the3.c: 190:     c_result = LATC & 0b00001000;
  2929  0021F4  508C               	movf	140,w,c	;volatile
  2930  0021F6  0B02               	andlw	2
  2931  0021F8  6FAA               	movwf	LAT_to_Arr@d_result& (0+255),b
  2932                           
  2933                           ;../../Desktop/336/the3/the3.c: 191:     c_result = c_result >> 1;
  2934  0021FA  C0D6  F19F         	movff	_charNum,??_LAT_to_Arr
  2935  0021FE  C0D7  F1A0         	movff	_charNum+1,??_LAT_to_Arr+1
  2936  002202  90D8               	bcf	status,0,c
  2937  002204  379F               	rlcf	??_LAT_to_Arr& (0+255),f,b
  2938  002206  37A0               	rlcf	(??_LAT_to_Arr+1)& (0+255),f,b
  2939  002208  90D8               	bcf	status,0,c
  2940  00220A  379F               	rlcf	??_LAT_to_Arr& (0+255),f,b
  2941  00220C  37A0               	rlcf	(??_LAT_to_Arr+1)& (0+255),f,b
  2942  00220E  90D8               	bcf	status,0,c
  2943  002210  379F               	rlcf	??_LAT_to_Arr& (0+255),f,b
  2944  002212  37A0               	rlcf	(??_LAT_to_Arr+1)& (0+255),f,b
  2945  002214  0EF9               	movlw	low (_customChars+65529)
  2946  002216  259F               	addwf	??_LAT_to_Arr& (0+255),w,b
  2947  002218  6ED9               	movwf	fsr2l,c
  2948  00221A  0E00               	movlw	high (_customChars+65529)
  2949  00221C  21A0               	addwfc	(??_LAT_to_Arr+1)& (0+255),w,b
  2950  00221E  6EDA               	movwf	fsr2h,c
  2951  002220  51A7               	movf	LAT_to_Arr@a_result& (0+255),w,b
  2952  002222  25A8               	addwf	LAT_to_Arr@b_result& (0+255),w,b
  2953  002224  25A9               	addwf	LAT_to_Arr@c_result& (0+255),w,b
  2954  002226  25AA               	addwf	LAT_to_Arr@d_result& (0+255),w,b
  2955  002228  6EDF               	movwf	indf2,c
  2956  00222A                     
  2957                           ; BSR set to: 1
  2958                           ;../../Desktop/336/the3/the3.c: 193:     d_result = d_result >> 2;
  2959  00222A  5089               	movf	137,w,c	;volatile
  2960  00222C  0B04               	andlw	4
  2961  00222E  6FA7               	movwf	LAT_to_Arr@a_result& (0+255),b
  2962  002230                     
  2963                           ; BSR set to: 1
  2964                           ;../../Desktop/336/the3/the3.c: 194:     customChars[charNum-1][3] = a_result + b_result
      +                           + c_result + d_result;
  2965  002230  45A7               	rlncf	LAT_to_Arr@a_result& (0+255),w,b
  2966  002232  46E8               	rlncf	wreg,f,c
  2967  002234  0BFC               	andlw	252
  2968  002236  6FA7               	movwf	LAT_to_Arr@a_result& (0+255),b
  2969  002238                     
  2970                           ; BSR set to: 1
  2971                           ;../../Desktop/336/the3/the3.c: 195: 
  2972  002238  508A               	movf	138,w,c	;volatile
  2973  00223A  0B04               	andlw	4
  2974  00223C  6FA8               	movwf	LAT_to_Arr@b_result& (0+255),b
  2975  00223E                     
  2976                           ; BSR set to: 1
  2977                           ;../../Desktop/336/the3/the3.c: 196: 
  2978  00223E  51A8               	movf	LAT_to_Arr@b_result& (0+255),w,b
  2979  002240  25A8               	addwf	LAT_to_Arr@b_result& (0+255),w,b
  2980  002242  6FA8               	movwf	LAT_to_Arr@b_result& (0+255),b
  2981  002244                     
  2982                           ; BSR set to: 1
  2983                           ;../../Desktop/336/the3/the3.c: 197:     a_result = LATA & 0b00010000;
  2984  002244  508B               	movf	139,w,c	;volatile
  2985  002246  0B04               	andlw	4
  2986  002248  6FA9               	movwf	LAT_to_Arr@c_result& (0+255),b
  2987  00224A                     
  2988                           ; BSR set to: 1
  2989                           ;../../Desktop/336/the3/the3.c: 198:     b_result = LATB & 0b00010000;
  2990  00224A  508C               	movf	140,w,c	;volatile
  2991  00224C  0B04               	andlw	4
  2992  00224E  6FAA               	movwf	LAT_to_Arr@d_result& (0+255),b
  2993  002250                     
  2994                           ; BSR set to: 1
  2995                           ;../../Desktop/336/the3/the3.c: 199:     b_result = b_result >> 1;
  2996  002250  90D8               	bcf	status,0,c
  2997  002252  31AA               	rrcf	LAT_to_Arr@d_result& (0+255),w,b
  2998  002254  6FAA               	movwf	LAT_to_Arr@d_result& (0+255),b
  2999  002256                     
  3000                           ; BSR set to: 1
  3001                           ;../../Desktop/336/the3/the3.c: 200:     c_result = LATC & 0b00010000;
  3002  002256  C0D6  F19F         	movff	_charNum,??_LAT_to_Arr
  3003  00225A  C0D7  F1A0         	movff	_charNum+1,??_LAT_to_Arr+1
  3004  00225E  90D8               	bcf	status,0,c
  3005  002260  379F               	rlcf	??_LAT_to_Arr& (0+255),f,b
  3006  002262  37A0               	rlcf	(??_LAT_to_Arr+1)& (0+255),f,b
  3007  002264  90D8               	bcf	status,0,c
  3008  002266  379F               	rlcf	??_LAT_to_Arr& (0+255),f,b
  3009  002268  37A0               	rlcf	(??_LAT_to_Arr+1)& (0+255),f,b
  3010  00226A  90D8               	bcf	status,0,c
  3011  00226C  379F               	rlcf	??_LAT_to_Arr& (0+255),f,b
  3012  00226E  37A0               	rlcf	(??_LAT_to_Arr+1)& (0+255),f,b
  3013  002270  0EFA               	movlw	low (_customChars+65530)
  3014  002272  259F               	addwf	??_LAT_to_Arr& (0+255),w,b
  3015  002274  6ED9               	movwf	fsr2l,c
  3016  002276  0E00               	movlw	high (_customChars+65530)
  3017  002278  21A0               	addwfc	(??_LAT_to_Arr+1)& (0+255),w,b
  3018  00227A  6EDA               	movwf	fsr2h,c
  3019  00227C  51A7               	movf	LAT_to_Arr@a_result& (0+255),w,b
  3020  00227E  25A8               	addwf	LAT_to_Arr@b_result& (0+255),w,b
  3021  002280  25A9               	addwf	LAT_to_Arr@c_result& (0+255),w,b
  3022  002282  25AA               	addwf	LAT_to_Arr@d_result& (0+255),w,b
  3023  002284  6EDF               	movwf	indf2,c
  3024                           
  3025                           ;../../Desktop/336/the3/the3.c: 203:     d_result = d_result >> 3;
  3026  002286  5089               	movf	137,w,c	;volatile
  3027  002288  0B08               	andlw	8
  3028  00228A  6FA7               	movwf	LAT_to_Arr@a_result& (0+255),b
  3029                           
  3030                           ;../../Desktop/336/the3/the3.c: 204:     customChars[charNum-1][4] = a_result + b_result
      +                           + c_result + d_result;
  3031  00228C  51A7               	movf	LAT_to_Arr@a_result& (0+255),w,b
  3032  00228E  25A7               	addwf	LAT_to_Arr@a_result& (0+255),w,b
  3033  002290  6FA7               	movwf	LAT_to_Arr@a_result& (0+255),b
  3034                           
  3035                           ;../../Desktop/336/the3/the3.c: 205: 
  3036  002292  508A               	movf	138,w,c	;volatile
  3037  002294  0B08               	andlw	8
  3038  002296  6FA8               	movwf	LAT_to_Arr@b_result& (0+255),b
  3039                           
  3040                           ;../../Desktop/336/the3/the3.c: 206:     a_result = LATA & 0b00100000;
  3041  002298  508B               	movf	139,w,c	;volatile
  3042  00229A  0B08               	andlw	8
  3043  00229C  6FA9               	movwf	LAT_to_Arr@c_result& (0+255),b
  3044                           
  3045                           ;../../Desktop/336/the3/the3.c: 207:     a_result = a_result >> 1;
  3046  00229E  90D8               	bcf	status,0,c
  3047  0022A0  31A9               	rrcf	LAT_to_Arr@c_result& (0+255),w,b
  3048  0022A2  6FA9               	movwf	LAT_to_Arr@c_result& (0+255),b
  3049                           
  3050                           ;../../Desktop/336/the3/the3.c: 208:     b_result = LATB & 0b00100000;
  3051  0022A4  508C               	movf	140,w,c	;volatile
  3052  0022A6  0B08               	andlw	8
  3053  0022A8  6FAA               	movwf	LAT_to_Arr@d_result& (0+255),b
  3054                           
  3055                           ;../../Desktop/336/the3/the3.c: 209:     b_result = b_result >> 2;
  3056  0022AA  41AA               	rrncf	LAT_to_Arr@d_result& (0+255),w,b
  3057  0022AC  42E8               	rrncf	wreg,f,c
  3058  0022AE  0B3F               	andlw	63
  3059  0022B0  6FAA               	movwf	LAT_to_Arr@d_result& (0+255),b
  3060  0022B2                     
  3061                           ; BSR set to: 1
  3062                           ;../../Desktop/336/the3/the3.c: 210:     c_result = LATC & 0b00100000;
  3063  0022B2  C0D6  F19F         	movff	_charNum,??_LAT_to_Arr
  3064  0022B6  C0D7  F1A0         	movff	_charNum+1,??_LAT_to_Arr+1
  3065  0022BA  90D8               	bcf	status,0,c
  3066  0022BC  379F               	rlcf	??_LAT_to_Arr& (0+255),f,b
  3067  0022BE  37A0               	rlcf	(??_LAT_to_Arr+1)& (0+255),f,b
  3068  0022C0  90D8               	bcf	status,0,c
  3069  0022C2  379F               	rlcf	??_LAT_to_Arr& (0+255),f,b
  3070  0022C4  37A0               	rlcf	(??_LAT_to_Arr+1)& (0+255),f,b
  3071  0022C6  90D8               	bcf	status,0,c
  3072  0022C8  379F               	rlcf	??_LAT_to_Arr& (0+255),f,b
  3073  0022CA  37A0               	rlcf	(??_LAT_to_Arr+1)& (0+255),f,b
  3074  0022CC  0EFB               	movlw	low (_customChars+65531)
  3075  0022CE  259F               	addwf	??_LAT_to_Arr& (0+255),w,b
  3076  0022D0  6ED9               	movwf	fsr2l,c
  3077  0022D2  0E00               	movlw	high (_customChars+65531)
  3078  0022D4  21A0               	addwfc	(??_LAT_to_Arr+1)& (0+255),w,b
  3079  0022D6  6EDA               	movwf	fsr2h,c
  3080  0022D8  51A7               	movf	LAT_to_Arr@a_result& (0+255),w,b
  3081  0022DA  25A8               	addwf	LAT_to_Arr@b_result& (0+255),w,b
  3082  0022DC  25A9               	addwf	LAT_to_Arr@c_result& (0+255),w,b
  3083  0022DE  25AA               	addwf	LAT_to_Arr@d_result& (0+255),w,b
  3084  0022E0  6EDF               	movwf	indf2,c
  3085  0022E2                     
  3086                           ; BSR set to: 1
  3087                           ;../../Desktop/336/the3/the3.c: 213:     d_result = d_result >> 4;
  3088  0022E2  5089               	movf	137,w,c	;volatile
  3089  0022E4  0B10               	andlw	16
  3090  0022E6  6FA7               	movwf	LAT_to_Arr@a_result& (0+255),b
  3091  0022E8                     
  3092                           ; BSR set to: 1
  3093                           ;../../Desktop/336/the3/the3.c: 214:     customChars[charNum-1][5] = a_result + b_result
      +                           + c_result + d_result;
  3094  0022E8  508A               	movf	138,w,c	;volatile
  3095  0022EA  0B10               	andlw	16
  3096  0022EC  6FA8               	movwf	LAT_to_Arr@b_result& (0+255),b
  3097  0022EE                     
  3098                           ; BSR set to: 1
  3099                           ;../../Desktop/336/the3/the3.c: 215: 
  3100  0022EE  90D8               	bcf	status,0,c
  3101  0022F0  31A8               	rrcf	LAT_to_Arr@b_result& (0+255),w,b
  3102  0022F2  6FA8               	movwf	LAT_to_Arr@b_result& (0+255),b
  3103  0022F4                     
  3104                           ; BSR set to: 1
  3105                           ;../../Desktop/336/the3/the3.c: 216: 
  3106  0022F4  508B               	movf	139,w,c	;volatile
  3107  0022F6  0B10               	andlw	16
  3108  0022F8  6FA9               	movwf	LAT_to_Arr@c_result& (0+255),b
  3109  0022FA                     
  3110                           ; BSR set to: 1
  3111                           ;../../Desktop/336/the3/the3.c: 217:     a_result = LATA & 0b01000000;
  3112  0022FA  41A9               	rrncf	LAT_to_Arr@c_result& (0+255),w,b
  3113  0022FC  42E8               	rrncf	wreg,f,c
  3114  0022FE  0B3F               	andlw	63
  3115  002300  6FA9               	movwf	LAT_to_Arr@c_result& (0+255),b
  3116  002302                     
  3117                           ; BSR set to: 1
  3118                           ;../../Desktop/336/the3/the3.c: 218:     a_result = a_result >> 2;
  3119  002302  508C               	movf	140,w,c	;volatile
  3120  002304  0B10               	andlw	16
  3121  002306  6FAA               	movwf	LAT_to_Arr@d_result& (0+255),b
  3122  002308                     
  3123                           ; BSR set to: 1
  3124                           ;../../Desktop/336/the3/the3.c: 219:     b_result = LATB & 0b01000000;
  3125  002308  39AA               	swapf	LAT_to_Arr@d_result& (0+255),w,b
  3126  00230A  46E8               	rlncf	wreg,f,c
  3127  00230C  0B1F               	andlw	31
  3128  00230E  6FAA               	movwf	LAT_to_Arr@d_result& (0+255),b
  3129                           
  3130                           ;../../Desktop/336/the3/the3.c: 220:     b_result = b_result >> 3;
  3131  002310  C0D6  F19F         	movff	_charNum,??_LAT_to_Arr
  3132  002314  C0D7  F1A0         	movff	_charNum+1,??_LAT_to_Arr+1
  3133  002318  90D8               	bcf	status,0,c
  3134  00231A  379F               	rlcf	??_LAT_to_Arr& (0+255),f,b
  3135  00231C  37A0               	rlcf	(??_LAT_to_Arr+1)& (0+255),f,b
  3136  00231E  90D8               	bcf	status,0,c
  3137  002320  379F               	rlcf	??_LAT_to_Arr& (0+255),f,b
  3138  002322  37A0               	rlcf	(??_LAT_to_Arr+1)& (0+255),f,b
  3139  002324  90D8               	bcf	status,0,c
  3140  002326  379F               	rlcf	??_LAT_to_Arr& (0+255),f,b
  3141  002328  37A0               	rlcf	(??_LAT_to_Arr+1)& (0+255),f,b
  3142  00232A  0EFC               	movlw	low (_customChars+65532)
  3143  00232C  259F               	addwf	??_LAT_to_Arr& (0+255),w,b
  3144  00232E  6ED9               	movwf	fsr2l,c
  3145  002330  0E00               	movlw	high (_customChars+65532)
  3146  002332  21A0               	addwfc	(??_LAT_to_Arr+1)& (0+255),w,b
  3147  002334  6EDA               	movwf	fsr2h,c
  3148  002336  51A7               	movf	LAT_to_Arr@a_result& (0+255),w,b
  3149  002338  25A8               	addwf	LAT_to_Arr@b_result& (0+255),w,b
  3150  00233A  25A9               	addwf	LAT_to_Arr@c_result& (0+255),w,b
  3151  00233C  25AA               	addwf	LAT_to_Arr@d_result& (0+255),w,b
  3152  00233E  6EDF               	movwf	indf2,c
  3153  002340                     
  3154                           ; BSR set to: 1
  3155                           ;../../Desktop/336/the3/the3.c: 222:     c_result = c_result >> 4;
  3156  002340  5089               	movf	137,w,c	;volatile
  3157  002342  0B20               	andlw	32
  3158  002344  6FA7               	movwf	LAT_to_Arr@a_result& (0+255),b
  3159  002346                     
  3160                           ; BSR set to: 1
  3161                           ;../../Desktop/336/the3/the3.c: 223:     d_result = LATD & 0b01000000;
  3162  002346  90D8               	bcf	status,0,c
  3163  002348  31A7               	rrcf	LAT_to_Arr@a_result& (0+255),w,b
  3164  00234A  6FA7               	movwf	LAT_to_Arr@a_result& (0+255),b
  3165  00234C                     
  3166                           ; BSR set to: 1
  3167                           ;../../Desktop/336/the3/the3.c: 224:     d_result = d_result >> 5;
  3168  00234C  508A               	movf	138,w,c	;volatile
  3169  00234E  0B20               	andlw	32
  3170  002350  6FA8               	movwf	LAT_to_Arr@b_result& (0+255),b
  3171  002352                     
  3172                           ; BSR set to: 1
  3173                           ;../../Desktop/336/the3/the3.c: 225:     customChars[charNum-1][6] = a_result + b_result
      +                           + c_result + d_result;
  3174  002352  41A8               	rrncf	LAT_to_Arr@b_result& (0+255),w,b
  3175  002354  42E8               	rrncf	wreg,f,c
  3176  002356  0B3F               	andlw	63
  3177  002358  6FA8               	movwf	LAT_to_Arr@b_result& (0+255),b
  3178  00235A                     
  3179                           ; BSR set to: 1
  3180                           ;../../Desktop/336/the3/the3.c: 226: 
  3181  00235A  508B               	movf	139,w,c	;volatile
  3182  00235C  0B20               	andlw	32
  3183  00235E  6FA9               	movwf	LAT_to_Arr@c_result& (0+255),b
  3184  002360                     
  3185                           ; BSR set to: 1
  3186                           ;../../Desktop/336/the3/the3.c: 227:     a_result = LATA & 0b10000000;
  3187  002360  39A9               	swapf	LAT_to_Arr@c_result& (0+255),w,b
  3188  002362  46E8               	rlncf	wreg,f,c
  3189  002364  0B1F               	andlw	31
  3190  002366  6FA9               	movwf	LAT_to_Arr@c_result& (0+255),b
  3191  002368                     
  3192                           ; BSR set to: 1
  3193                           ;../../Desktop/336/the3/the3.c: 228:     a_result = a_result >> 3;
  3194  002368  508C               	movf	140,w,c	;volatile
  3195  00236A  0B20               	andlw	32
  3196  00236C  6FAA               	movwf	LAT_to_Arr@d_result& (0+255),b
  3197  00236E                     
  3198                           ; BSR set to: 1
  3199                           ;../../Desktop/336/the3/the3.c: 229:     b_result = LATB & 0b10000000;
  3200  00236E  39AA               	swapf	LAT_to_Arr@d_result& (0+255),w,b
  3201  002370  0B0F               	andlw	15
  3202  002372  6FAA               	movwf	LAT_to_Arr@d_result& (0+255),b
  3203                           
  3204                           ;../../Desktop/336/the3/the3.c: 230:     b_result = b_result >> 4;
  3205  002374  C0D6  F19F         	movff	_charNum,??_LAT_to_Arr
  3206  002378  C0D7  F1A0         	movff	_charNum+1,??_LAT_to_Arr+1
  3207  00237C  90D8               	bcf	status,0,c
  3208  00237E  379F               	rlcf	??_LAT_to_Arr& (0+255),f,b
  3209  002380  37A0               	rlcf	(??_LAT_to_Arr+1)& (0+255),f,b
  3210  002382  90D8               	bcf	status,0,c
  3211  002384  379F               	rlcf	??_LAT_to_Arr& (0+255),f,b
  3212  002386  37A0               	rlcf	(??_LAT_to_Arr+1)& (0+255),f,b
  3213  002388  90D8               	bcf	status,0,c
  3214  00238A  379F               	rlcf	??_LAT_to_Arr& (0+255),f,b
  3215  00238C  37A0               	rlcf	(??_LAT_to_Arr+1)& (0+255),f,b
  3216  00238E  0EFD               	movlw	low (_customChars+65533)
  3217  002390  259F               	addwf	??_LAT_to_Arr& (0+255),w,b
  3218  002392  6ED9               	movwf	fsr2l,c
  3219  002394  0E00               	movlw	high (_customChars+65533)
  3220  002396  21A0               	addwfc	(??_LAT_to_Arr+1)& (0+255),w,b
  3221  002398  6EDA               	movwf	fsr2h,c
  3222  00239A  51A7               	movf	LAT_to_Arr@a_result& (0+255),w,b
  3223  00239C  25A8               	addwf	LAT_to_Arr@b_result& (0+255),w,b
  3224  00239E  25A9               	addwf	LAT_to_Arr@c_result& (0+255),w,b
  3225  0023A0  25AA               	addwf	LAT_to_Arr@d_result& (0+255),w,b
  3226  0023A2  6EDF               	movwf	indf2,c
  3227  0023A4                     
  3228                           ; BSR set to: 1
  3229                           ;../../Desktop/336/the3/the3.c: 233:     d_result = LATD & 0b10000000;
  3230  0023A4  5089               	movf	137,w,c	;volatile
  3231  0023A6  0B40               	andlw	64
  3232  0023A8  6FA7               	movwf	LAT_to_Arr@a_result& (0+255),b
  3233  0023AA                     
  3234                           ; BSR set to: 1
  3235                           ;../../Desktop/336/the3/the3.c: 234:     d_result = d_result >> 6;
  3236  0023AA  41A7               	rrncf	LAT_to_Arr@a_result& (0+255),w,b
  3237  0023AC  42E8               	rrncf	wreg,f,c
  3238  0023AE  0B3F               	andlw	63
  3239  0023B0  6FA7               	movwf	LAT_to_Arr@a_result& (0+255),b
  3240  0023B2                     
  3241                           ; BSR set to: 1
  3242                           ;../../Desktop/336/the3/the3.c: 235:     customChars[charNum-1][7] = a_result + b_result
      +                           + c_result + d_result;
  3243  0023B2  508A               	movf	138,w,c	;volatile
  3244  0023B4  0B40               	andlw	64
  3245  0023B6  6FA8               	movwf	LAT_to_Arr@b_result& (0+255),b
  3246  0023B8                     
  3247                           ; BSR set to: 1
  3248                           ;../../Desktop/336/the3/the3.c: 236: 
  3249  0023B8  39A8               	swapf	LAT_to_Arr@b_result& (0+255),w,b
  3250  0023BA  46E8               	rlncf	wreg,f,c
  3251  0023BC  0B1F               	andlw	31
  3252  0023BE  6FA8               	movwf	LAT_to_Arr@b_result& (0+255),b
  3253  0023C0                     
  3254                           ; BSR set to: 1
  3255                           ;../../Desktop/336/the3/the3.c: 237: 
  3256  0023C0  508B               	movf	139,w,c	;volatile
  3257  0023C2  0B40               	andlw	64
  3258  0023C4  6FA9               	movwf	LAT_to_Arr@c_result& (0+255),b
  3259  0023C6                     
  3260                           ; BSR set to: 1
  3261                           ;../../Desktop/336/the3/the3.c: 238: 
  3262  0023C6  39A9               	swapf	LAT_to_Arr@c_result& (0+255),w,b
  3263  0023C8  0B0F               	andlw	15
  3264  0023CA  6FA9               	movwf	LAT_to_Arr@c_result& (0+255),b
  3265  0023CC                     
  3266                           ; BSR set to: 1
  3267                           ;../../Desktop/336/the3/the3.c: 239: 
  3268  0023CC  508C               	movf	140,w,c	;volatile
  3269  0023CE  0B40               	andlw	64
  3270  0023D0  6FAA               	movwf	LAT_to_Arr@d_result& (0+255),b
  3271  0023D2                     
  3272                           ; BSR set to: 1
  3273                           ;../../Desktop/336/the3/the3.c: 240: 
  3274  0023D2  39AA               	swapf	LAT_to_Arr@d_result& (0+255),w,b
  3275  0023D4  42E8               	rrncf	wreg,f,c
  3276  0023D6  0B07               	andlw	7
  3277  0023D8  6FAA               	movwf	LAT_to_Arr@d_result& (0+255),b
  3278                           
  3279                           ;../../Desktop/336/the3/the3.c: 241: 
  3280  0023DA  C0D6  F19F         	movff	_charNum,??_LAT_to_Arr
  3281  0023DE  C0D7  F1A0         	movff	_charNum+1,??_LAT_to_Arr+1
  3282  0023E2  90D8               	bcf	status,0,c
  3283  0023E4  379F               	rlcf	??_LAT_to_Arr& (0+255),f,b
  3284  0023E6  37A0               	rlcf	(??_LAT_to_Arr+1)& (0+255),f,b
  3285  0023E8  90D8               	bcf	status,0,c
  3286  0023EA  379F               	rlcf	??_LAT_to_Arr& (0+255),f,b
  3287  0023EC  37A0               	rlcf	(??_LAT_to_Arr+1)& (0+255),f,b
  3288  0023EE  90D8               	bcf	status,0,c
  3289  0023F0  379F               	rlcf	??_LAT_to_Arr& (0+255),f,b
  3290  0023F2  37A0               	rlcf	(??_LAT_to_Arr+1)& (0+255),f,b
  3291  0023F4  0EFE               	movlw	low (_customChars+65534)
  3292  0023F6  259F               	addwf	??_LAT_to_Arr& (0+255),w,b
  3293  0023F8  6ED9               	movwf	fsr2l,c
  3294  0023FA  0E00               	movlw	high (_customChars+65534)
  3295  0023FC  21A0               	addwfc	(??_LAT_to_Arr+1)& (0+255),w,b
  3296  0023FE  6EDA               	movwf	fsr2h,c
  3297  002400  51A7               	movf	LAT_to_Arr@a_result& (0+255),w,b
  3298  002402  25A8               	addwf	LAT_to_Arr@b_result& (0+255),w,b
  3299  002404  25A9               	addwf	LAT_to_Arr@c_result& (0+255),w,b
  3300  002406  25AA               	addwf	LAT_to_Arr@d_result& (0+255),w,b
  3301  002408  6EDF               	movwf	indf2,c
  3302  00240A                     
  3303                           ; BSR set to: 1
  3304                           ;../../Desktop/336/the3/the3.c: 243:     PORTBbits.RB2 = 0;
  3305  00240A  5089               	movf	137,w,c	;volatile
  3306  00240C  0B80               	andlw	128
  3307  00240E  6FA7               	movwf	LAT_to_Arr@a_result& (0+255),b
  3308  002410                     
  3309                           ; BSR set to: 1
  3310                           ;../../Desktop/336/the3/the3.c: 244:     SendBusContents(0x40+(charNum-1)*8);
  3311  002410  39A7               	swapf	LAT_to_Arr@a_result& (0+255),w,b
  3312  002412  46E8               	rlncf	wreg,f,c
  3313  002414  0B1F               	andlw	31
  3314  002416  6FA7               	movwf	LAT_to_Arr@a_result& (0+255),b
  3315  002418                     
  3316                           ; BSR set to: 1
  3317                           ;../../Desktop/336/the3/the3.c: 245:     for (int i=0; i<8; i++)
  3318  002418  508A               	movf	138,w,c	;volatile
  3319  00241A  0B80               	andlw	128
  3320  00241C  6FA8               	movwf	LAT_to_Arr@b_result& (0+255),b
  3321  00241E                     
  3322                           ; BSR set to: 1
  3323                           ;../../Desktop/336/the3/the3.c: 246:     {
  3324  00241E  39A8               	swapf	LAT_to_Arr@b_result& (0+255),w,b
  3325  002420  0B0F               	andlw	15
  3326  002422  6FA8               	movwf	LAT_to_Arr@b_result& (0+255),b
  3327  002424                     
  3328                           ; BSR set to: 1
  3329                           ;../../Desktop/336/the3/the3.c: 247:         customChars[charNum-1][i]<<1;
  3330  002424  508B               	movf	139,w,c	;volatile
  3331  002426  0B80               	andlw	128
  3332  002428  6FA9               	movwf	LAT_to_Arr@c_result& (0+255),b
  3333  00242A                     
  3334                           ; BSR set to: 1
  3335                           ;../../Desktop/336/the3/the3.c: 248:         PORTBbits.RB2 = 1;
  3336  00242A  39A9               	swapf	LAT_to_Arr@c_result& (0+255),w,b
  3337  00242C  42E8               	rrncf	wreg,f,c
  3338  00242E  0B07               	andlw	7
  3339  002430  6FA9               	movwf	LAT_to_Arr@c_result& (0+255),b
  3340  002432                     
  3341                           ; BSR set to: 1
  3342                           ;../../Desktop/336/the3/the3.c: 249:         SendBusContents(customChars[charNum-1][i]);
  3343  002432  508C               	movf	140,w,c	;volatile
  3344  002434  0B80               	andlw	128
  3345  002436  6FAA               	movwf	LAT_to_Arr@d_result& (0+255),b
  3346  002438                     
  3347                           ; BSR set to: 1
  3348                           ;../../Desktop/336/the3/the3.c: 250:     }
  3349  002438  45AA               	rlncf	LAT_to_Arr@d_result& (0+255),w,b
  3350  00243A  46E8               	rlncf	wreg,f,c
  3351  00243C  0B03               	andlw	3
  3352  00243E  6FAA               	movwf	LAT_to_Arr@d_result& (0+255),b
  3353                           
  3354                           ;../../Desktop/336/the3/the3.c: 251:     PORTBbits.RB2 = 0;
  3355  002440  C0D6  F19F         	movff	_charNum,??_LAT_to_Arr
  3356  002444  C0D7  F1A0         	movff	_charNum+1,??_LAT_to_Arr+1
  3357  002448  90D8               	bcf	status,0,c
  3358  00244A  379F               	rlcf	??_LAT_to_Arr& (0+255),f,b
  3359  00244C  37A0               	rlcf	(??_LAT_to_Arr+1)& (0+255),f,b
  3360  00244E  90D8               	bcf	status,0,c
  3361  002450  379F               	rlcf	??_LAT_to_Arr& (0+255),f,b
  3362  002452  37A0               	rlcf	(??_LAT_to_Arr+1)& (0+255),f,b
  3363  002454  90D8               	bcf	status,0,c
  3364  002456  379F               	rlcf	??_LAT_to_Arr& (0+255),f,b
  3365  002458  37A0               	rlcf	(??_LAT_to_Arr+1)& (0+255),f,b
  3366  00245A  0EFF               	movlw	low (_customChars+65535)
  3367  00245C  259F               	addwf	??_LAT_to_Arr& (0+255),w,b
  3368  00245E  6ED9               	movwf	fsr2l,c
  3369  002460  0E00               	movlw	high (_customChars+65535)
  3370  002462  21A0               	addwfc	(??_LAT_to_Arr+1)& (0+255),w,b
  3371  002464  6EDA               	movwf	fsr2h,c
  3372  002466  51A7               	movf	LAT_to_Arr@a_result& (0+255),w,b
  3373  002468  25A8               	addwf	LAT_to_Arr@b_result& (0+255),w,b
  3374  00246A  25A9               	addwf	LAT_to_Arr@c_result& (0+255),w,b
  3375  00246C  25AA               	addwf	LAT_to_Arr@d_result& (0+255),w,b
  3376  00246E  6EDF               	movwf	indf2,c
  3377  002470                     
  3378                           ; BSR set to: 1
  3379                           ;../../Desktop/336/the3/the3.c: 259: }
  3380  002470  9481               	bcf	129,2,c	;volatile
  3381  002472                     
  3382                           ; BSR set to: 1
  3383                           ;../../Desktop/336/the3/the3.c: 260: 
  3384  002472  0100               	movlb	0	; () banked
  3385  002474  51D6               	movf	_charNum& (0+255),w,b
  3386  002476  0D08               	mullw	8
  3387  002478  50F3               	movf	243,w,c
  3388  00247A  0F38               	addlw	56
  3389  00247C  ECB1  F01B         	call	_SendBusContents
  3390  002480                     
  3391                           ;../../Desktop/336/the3/the3.c: 261: 
  3392  002480  0E00               	movlw	0
  3393  002482  0101               	movlb	1	; () banked
  3394  002484  6FA6               	movwf	(LAT_to_Arr@i+1)& (0+255),b
  3395  002486  0E00               	movlw	0
  3396  002488  6FA5               	movwf	LAT_to_Arr@i& (0+255),b
  3397  00248A                     l144:
  3398                           
  3399                           ; BSR set to: 1
  3400                           ;../../Desktop/336/the3/the3.c: 264:     tmr1_init();
  3401  00248A  8481               	bsf	129,2,c	;volatile
  3402  00248C                     
  3403                           ; BSR set to: 1
  3404                           ;../../Desktop/336/the3/the3.c: 265:     adc_init();
  3405  00248C  C0D6  F19F         	movff	_charNum,??_LAT_to_Arr
  3406  002490  C0D7  F1A0         	movff	_charNum+1,??_LAT_to_Arr+1
  3407  002494  90D8               	bcf	status,0,c
  3408  002496  379F               	rlcf	??_LAT_to_Arr& (0+255),f,b
  3409  002498  37A0               	rlcf	(??_LAT_to_Arr+1)& (0+255),f,b
  3410  00249A  90D8               	bcf	status,0,c
  3411  00249C  379F               	rlcf	??_LAT_to_Arr& (0+255),f,b
  3412  00249E  37A0               	rlcf	(??_LAT_to_Arr+1)& (0+255),f,b
  3413  0024A0  90D8               	bcf	status,0,c
  3414  0024A2  379F               	rlcf	??_LAT_to_Arr& (0+255),f,b
  3415  0024A4  37A0               	rlcf	(??_LAT_to_Arr+1)& (0+255),f,b
  3416  0024A6  0EF8               	movlw	248
  3417  0024A8  6FA1               	movwf	(??_LAT_to_Arr+2)& (0+255),b
  3418  0024AA  0EFF               	movlw	255
  3419  0024AC  6FA2               	movwf	(??_LAT_to_Arr+3)& (0+255),b
  3420  0024AE  0E00               	movlw	low _customChars
  3421  0024B0  6FA3               	movwf	(??_LAT_to_Arr+4)& (0+255),b
  3422  0024B2  0E01               	movlw	high _customChars
  3423  0024B4  6FA4               	movwf	(??_LAT_to_Arr+5)& (0+255),b
  3424  0024B6  51A1               	movf	(??_LAT_to_Arr+2)& (0+255),w,b
  3425  0024B8  27A3               	addwf	(??_LAT_to_Arr+4)& (0+255),f,b
  3426  0024BA  51A2               	movf	(??_LAT_to_Arr+3)& (0+255),w,b
  3427  0024BC  23A4               	addwfc	(??_LAT_to_Arr+5)& (0+255),f,b
  3428  0024BE  519F               	movf	??_LAT_to_Arr& (0+255),w,b
  3429  0024C0  27A3               	addwf	(??_LAT_to_Arr+4)& (0+255),f,b
  3430  0024C2  51A0               	movf	(??_LAT_to_Arr+1)& (0+255),w,b
  3431  0024C4  23A4               	addwfc	(??_LAT_to_Arr+5)& (0+255),f,b
  3432  0024C6  51A5               	movf	LAT_to_Arr@i& (0+255),w,b
  3433  0024C8  25A3               	addwf	(??_LAT_to_Arr+4)& (0+255),w,b
  3434  0024CA  6ED9               	movwf	fsr2l,c
  3435  0024CC  51A6               	movf	(LAT_to_Arr@i+1)& (0+255),w,b
  3436  0024CE  21A4               	addwfc	(??_LAT_to_Arr+5)& (0+255),w,b
  3437  0024D0  6EDA               	movwf	fsr2h,c
  3438  0024D2  50DF               	movf	indf2,w,c
  3439  0024D4  ECB1  F01B         	call	_SendBusContents
  3440  0024D8                     
  3441                           ;../../Desktop/336/the3/the3.c: 266:     InitLCD();
  3442  0024D8  0101               	movlb	1	; () banked
  3443  0024DA  4BA5               	infsnz	LAT_to_Arr@i& (0+255),f,b
  3444  0024DC  2BA6               	incf	(LAT_to_Arr@i+1)& (0+255),f,b
  3445  0024DE                     
  3446                           ; BSR set to: 1
  3447  0024DE  BFA6               	btfsc	(LAT_to_Arr@i+1)& (0+255),7,b
  3448  0024E0  EF7B  F012         	goto	u2151
  3449  0024E4  51A6               	movf	(LAT_to_Arr@i+1)& (0+255),w,b
  3450  0024E6  E109               	bnz	u2150
  3451  0024E8  0E08               	movlw	8
  3452  0024EA  5DA5               	subwf	LAT_to_Arr@i& (0+255),w,b
  3453  0024EC  A0D8               	btfss	status,0,c
  3454  0024EE  EF7B  F012         	goto	u2151
  3455  0024F2  EF7D  F012         	goto	u2150
  3456  0024F6                     u2151:
  3457  0024F6  EF45  F012         	goto	l144
  3458  0024FA                     u2150:
  3459  0024FA                     
  3460                           ; BSR set to: 1
  3461                           ;../../Desktop/336/the3/the3.c: 267: 
  3462  0024FA  9481               	bcf	129,2,c	;volatile
  3463  0024FC                     
  3464                           ; BSR set to: 1
  3465                           ;../../Desktop/336/the3/the3.c: 268:  TRISJ = 0x00;
  3466  0024FC  5172               	movf	_result& (0+255),w,b
  3467  0024FE  0F80               	addlw	128
  3468  002500  ECB1  F01B         	call	_SendBusContents
  3469  002504                     
  3470                           ;../../Desktop/336/the3/the3.c: 269: 
  3471  002504  8481               	bsf	129,2,c	;volatile
  3472                           
  3473                           ;../../Desktop/336/the3/the3.c: 270:     TMR1H = (65530 >> 8) & 0xff;
  3474  002506  0100               	movlb	0	; () banked
  3475  002508  05D6               	decf	_charNum& (0+255),w,b
  3476  00250A  ECB1  F01B         	call	_SendBusContents
  3477  00250E                     
  3478                           ;../../Desktop/336/the3/the3.c: 271:     TMR1L = 65530 & 0xff;
  3479  00250E  0EFF               	movlw	255
  3480  002510  0101               	movlb	1	; () banked
  3481  002512  6F9F               	movwf	??_LAT_to_Arr& (0+255),b
  3482  002514  0EFF               	movlw	255
  3483  002516  6FA0               	movwf	(??_LAT_to_Arr+1)& (0+255),b
  3484  002518  C0D6  F1A1         	movff	_charNum,??_LAT_to_Arr+2
  3485  00251C  C0D7  F1A2         	movff	_charNum+1,??_LAT_to_Arr+3
  3486  002520  519F               	movf	??_LAT_to_Arr& (0+255),w,b
  3487  002522  27A1               	addwf	(??_LAT_to_Arr+2)& (0+255),f,b
  3488  002524  51A0               	movf	(??_LAT_to_Arr+1)& (0+255),w,b
  3489  002526  23A2               	addwfc	(??_LAT_to_Arr+3)& (0+255),f,b
  3490  002528  90D8               	bcf	status,0,c
  3491  00252A  3572               	rlcf	_result& (0+255),w,b
  3492  00252C  6ED9               	movwf	fsr2l,c
  3493  00252E  3573               	rlcf	(_result+1)& (0+255),w,b
  3494  002530  6EDA               	movwf	fsr2h,c
  3495  002532  0E40               	movlw	low _custom_sentence
  3496  002534  26D9               	addwf	fsr2l,f,c
  3497  002536  0E01               	movlw	high _custom_sentence
  3498  002538  22DA               	addwfc	fsr2h,f,c
  3499  00253A  C1A1  FFDE         	movff	??_LAT_to_Arr+2,postinc2
  3500  00253E  C1A2  FFDD         	movff	??_LAT_to_Arr+3,postdec2
  3501  002542                     
  3502                           ; BSR set to: 1
  3503                           ;../../Desktop/336/the3/the3.c: 272: 
  3504  002542  9481               	bcf	129,2,c	;volatile
  3505  002544                     
  3506                           ; BSR set to: 1
  3507                           ;../../Desktop/336/the3/the3.c: 273:     TRISE=0xff;
  3508  002544  0E10               	movlw	16
  3509  002546  ECB1  F01B         	call	_SendBusContents
  3510  00254A  0012               	return		;funcret
  3511  00254C                     __end_of_LAT_to_Arr:
  3512                           	callstack 0
  3513                           
  3514 ;; *************** function _SendBusContents *****************
  3515 ;; Defined at:
  3516 ;;		line 154 in file "../../Desktop/336/the3/the3.c"
  3517 ;; Parameters:    Size  Location     Type
  3518 ;;  data            1    wreg     unsigned char 
  3519 ;; Auto vars:     Size  Location     Type
  3520 ;;  data            1    0[BANK1 ] unsigned char 
  3521 ;; Return value:  Size  Location     Type
  3522 ;;                  1    wreg      void 
  3523 ;; Registers used:
  3524 ;;		wreg, status,2, status,0, cstack
  3525 ;; Tracked objects:
  3526 ;;		On entry : 0/0
  3527 ;;		On exit  : 0/0
  3528 ;;		Unchanged: 0/0
  3529 ;; Data sizes:     COMRAM   BANK0   BANK1   BANK2   BANK3   BANK4   BANK5   BANK6   BANK7   BANK8   BANK9  BANK10  BANK1
      +1  BANK12  BANK13  BANK14  BANK15
  3530 ;;      Params:         0       0       0       0       0       0       0       0       0       0       0       0       
      +0       0       0       0       0
  3531 ;;      Locals:         0       0       1       0       0       0       0       0       0       0       0       0       
      +0       0       0       0       0
  3532 ;;      Temps:          0       0       0       0       0       0       0       0       0       0       0       0       
      +0       0       0       0       0
  3533 ;;      Totals:         0       0       1       0       0       0       0       0       0       0       0       0       
      +0       0       0       0       0
  3534 ;;Total ram usage:        1 bytes
  3535 ;; Hardware stack levels used:    1
  3536 ;; Hardware stack levels required when called:    9
  3537 ;; This function calls:
  3538 ;;		_Pulse
  3539 ;; This function is called by:
  3540 ;;		_InitLCD
  3541 ;;		_LAT_to_Arr
  3542 ;;		_TEM
  3543 ;;		_TSM
  3544 ;; This function uses a non-reentrant model
  3545 ;;
  3546                           
  3547                           	psect	text10
  3548  003762                     __ptext10:
  3549                           	callstack 0
  3550  003762                     _SendBusContents:
  3551                           	callstack 19
  3552                           
  3553                           ;incstack = 0
  3554                           ;SendBusContents@data stored from wreg
  3555  003762  0101               	movlb	1	; () banked
  3556  003764  6F9E               	movwf	SendBusContents@data& (0+255),b
  3557  003766                     
  3558                           ;../../Desktop/336/the3/the3.c: 155: 
  3559  003766  5083               	movf	131,w,c	;volatile
  3560  003768  0B0F               	andlw	15
  3561  00376A  6E83               	movwf	131,c	;volatile
  3562                           
  3563                           ;../../Desktop/336/the3/the3.c: 156: 
  3564  00376C  0101               	movlb	1	; () banked
  3565  00376E  519E               	movf	SendBusContents@data& (0+255),w,b
  3566  003770  0BF0               	andlw	240
  3567  003772  1083               	iorwf	131,w,c	;volatile
  3568  003774  6E83               	movwf	131,c	;volatile
  3569  003776                     
  3570                           ; BSR set to: 1
  3571                           ;../../Desktop/336/the3/the3.c: 157: 
  3572  003776  EC0C  F01C         	call	_Pulse	;wreg free
  3573  00377A                     
  3574                           ;../../Desktop/336/the3/the3.c: 158:     a_result = LATA & 0b00000001;
  3575  00377A  5083               	movf	131,w,c	;volatile
  3576  00377C  0B0F               	andlw	15
  3577  00377E  6E83               	movwf	131,c	;volatile
  3578  003780                     
  3579                           ;../../Desktop/336/the3/the3.c: 159:     a_result = a_result << 4;
  3580  003780  0101               	movlb	1	; () banked
  3581  003782  399E               	swapf	SendBusContents@data& (0+255),w,b
  3582  003784  0BF0               	andlw	240
  3583  003786  0BF0               	andlw	240
  3584  003788  1083               	iorwf	131,w,c	;volatile
  3585  00378A  6E83               	movwf	131,c	;volatile
  3586  00378C                     
  3587                           ; BSR set to: 1
  3588                           ;../../Desktop/336/the3/the3.c: 160:     b_result = LATB & 0b00000001;
  3589  00378C  EC0C  F01C         	call	_Pulse	;wreg free
  3590  003790  0012               	return		;funcret
  3591  003792                     __end_of_SendBusContents:
  3592                           	callstack 0
  3593                           
  3594 ;; *************** function _Pulse *****************
  3595 ;; Defined at:
  3596 ;;		line 124 in file "../../Desktop/336/the3/the3.c"
  3597 ;; Parameters:    Size  Location     Type
  3598 ;;		None
  3599 ;; Auto vars:     Size  Location     Type
  3600 ;;		None
  3601 ;; Return value:  Size  Location     Type
  3602 ;;                  1    wreg      void 
  3603 ;; Registers used:
  3604 ;;		wreg
  3605 ;; Tracked objects:
  3606 ;;		On entry : 0/0
  3607 ;;		On exit  : 0/0
  3608 ;;		Unchanged: 0/0
  3609 ;; Data sizes:     COMRAM   BANK0   BANK1   BANK2   BANK3   BANK4   BANK5   BANK6   BANK7   BANK8   BANK9  BANK10  BANK1
      +1  BANK12  BANK13  BANK14  BANK15
  3610 ;;      Params:         0       0       0       0       0       0       0       0       0       0       0       0       
      +0       0       0       0       0
  3611 ;;      Locals:         0       0       0       0       0       0       0       0       0       0       0       0       
      +0       0       0       0       0
  3612 ;;      Temps:          0       0       0       0       0       0       0       0       0       0       0       0       
      +0       0       0       0       0
  3613 ;;      Totals:         0       0       0       0       0       0       0       0       0       0       0       0       
      +0       0       0       0       0
  3614 ;;Total ram usage:        0 bytes
  3615 ;; Hardware stack levels used:    1
  3616 ;; Hardware stack levels required when called:    8
  3617 ;; This function calls:
  3618 ;;		Nothing
  3619 ;; This function is called by:
  3620 ;;		_InitLCD
  3621 ;;		_SendBusContents
  3622 ;; This function uses a non-reentrant model
  3623 ;;
  3624                           
  3625                           	psect	text11
  3626  003818                     __ptext11:
  3627                           	callstack 0
  3628  003818                     _Pulse:
  3629                           	callstack 19
  3630  003818                     
  3631                           ;../../Desktop/336/the3/the3.c: 125:     _delay((unsigned long)((300)*(40000000/4000000.
      +                          0)));
  3632  003818  8A81               	bsf	129,5,c	;volatile
  3633  00381A                     
  3634                           ;../../Desktop/336/the3/the3.c: 126:     PORTD = 0x30;
  3635  00381A  0E64               	movlw	100
  3636  00381C                     u3687:
  3637  00381C  2EE8               	decfsz	wreg,f,c
  3638  00381E  D7FE               	bra	u3687
  3639  003820                     
  3640                           ;../../Desktop/336/the3/the3.c: 127:     Pulse();
  3641  003820  9A81               	bcf	129,5,c	;volatile
  3642                           
  3643                           ;../../Desktop/336/the3/the3.c: 128: 
  3644  003822  0E64               	movlw	100
  3645  003824                     u3697:
  3646  003824  2EE8               	decfsz	wreg,f,c
  3647  003826  D7FE               	bra	u3697
  3648  003828  0012               	return		;funcret
  3649  00382A                     __end_of_Pulse:
  3650                           	callstack 0
  3651                           
  3652 ;; *************** function _lowPriorityISR *****************
  3653 ;; Defined at:
  3654 ;;		line 85 in file "../../Desktop/336/the3/the3.c"
  3655 ;; Parameters:    Size  Location     Type
  3656 ;;		None
  3657 ;; Auto vars:     Size  Location     Type
  3658 ;;		None
  3659 ;; Return value:  Size  Location     Type
  3660 ;;                  1    wreg      void 
  3661 ;; Registers used:
  3662 ;;		wreg, fsr2l, fsr2h, status,2, status,0, prodl, prodh, cstack
  3663 ;; Tracked objects:
  3664 ;;		On entry : 0/0
  3665 ;;		On exit  : 0/0
  3666 ;;		Unchanged: 0/0
  3667 ;; Data sizes:     COMRAM   BANK0   BANK1   BANK2   BANK3   BANK4   BANK5   BANK6   BANK7   BANK8   BANK9  BANK10  BANK1
      +1  BANK12  BANK13  BANK14  BANK15
  3668 ;;      Params:         0       0       0       0       0       0       0       0       0       0       0       0       
      +0       0       0       0       0
  3669 ;;      Locals:         0       0       0       0       0       0       0       0       0       0       0       0       
      +0       0       0       0       0
  3670 ;;      Temps:          0       7       0       0       0       0       0       0       0       0       0       0       
      +0       0       0       0       0
  3671 ;;      Totals:         0       7       0       0       0       0       0       0       0       0       0       0       
      +0       0       0       0       0
  3672 ;;Total ram usage:        7 bytes
  3673 ;; Hardware stack levels used:    1
  3674 ;; Hardware stack levels required when called:    7
  3675 ;; This function calls:
  3676 ;;		_seven_segment
  3677 ;; This function is called by:
  3678 ;;		Interrupt level 1
  3679 ;; This function uses a non-reentrant model
  3680 ;;
  3681                           
  3682                           	psect	intcodelo
  3683  000018                     __pintcodelo:
  3684                           	callstack 0
  3685  000018                     _lowPriorityISR:
  3686                           	callstack 18
  3687                           
  3688                           ;incstack = 0
  3689  000018  805C               	bsf	int$flags,0,c	;set compiler interrupt flag (level 1)
  3690  00001A  CFD8 F0B7          	movff	status,??_lowPriorityISR
  3691  00001E  CFE8 F0B8          	movff	wreg,??_lowPriorityISR+1
  3692  000022  CFE0 F0B9          	movff	bsr,??_lowPriorityISR+2
  3693  000026  CFD9 F0BA          	movff	fsr2l,??_lowPriorityISR+3
  3694  00002A  CFDA F0BB          	movff	fsr2h,??_lowPriorityISR+4
  3695  00002E  CFF3 F0BC          	movff	prodl,??_lowPriorityISR+5
  3696  000032  CFF4 F0BD          	movff	prodh,??_lowPriorityISR+6
  3697  000036                     
  3698                           ;../../Desktop/336/the3/the3.c: 86:     LATJ=0x00;
  3699  000036  A09E               	btfss	158,0,c	;volatile
  3700  000038  EF20  F000         	goto	i1u358_21
  3701  00003C  EF22  F000         	goto	i1u358_20
  3702  000040                     i1u358_21:
  3703  000040  EF24  F000         	goto	i1l123
  3704  000044                     i1u358_20:
  3705  000044  ECEA  F019         	call	_seven_segment	;wreg free
  3706  000048                     i1l123:
  3707  000048  C0BD  FFF4         	movff	??_lowPriorityISR+6,prodh
  3708  00004C  C0BC  FFF3         	movff	??_lowPriorityISR+5,prodl
  3709  000050  C0BB  FFDA         	movff	??_lowPriorityISR+4,fsr2h
  3710  000054  C0BA  FFD9         	movff	??_lowPriorityISR+3,fsr2l
  3711  000058  C0B9  FFE0         	movff	??_lowPriorityISR+2,bsr
  3712  00005C  C0B8  FFE8         	movff	??_lowPriorityISR+1,wreg
  3713  000060  C0B7  FFD8         	movff	??_lowPriorityISR,status
  3714  000064  905C               	bcf	int$flags,0,c	;clear compiler interrupt flag (level 1)
  3715  000066  0010               	retfie	
  3716  000068                     __end_of_lowPriorityISR:
  3717                           	callstack 0
  3718                           
  3719 ;; *************** function _seven_segment *****************
  3720 ;; Defined at:
  3721 ;;		line 89 in file "../../Desktop/336/the3/the3.c"
  3722 ;; Parameters:    Size  Location     Type
  3723 ;;		None
  3724 ;; Auto vars:     Size  Location     Type
  3725 ;;		None
  3726 ;; Return value:  Size  Location     Type
  3727 ;;                  1    wreg      void 
  3728 ;; Registers used:
  3729 ;;		wreg, fsr2l, fsr2h, status,2, status,0, prodl, prodh, cstack
  3730 ;; Tracked objects:
  3731 ;;		On entry : 0/0
  3732 ;;		On exit  : 0/0
  3733 ;;		Unchanged: 0/0
  3734 ;; Data sizes:     COMRAM   BANK0   BANK1   BANK2   BANK3   BANK4   BANK5   BANK6   BANK7   BANK8   BANK9  BANK10  BANK1
      +1  BANK12  BANK13  BANK14  BANK15
  3735 ;;      Params:         0       0       0       0       0       0       0       0       0       0       0       0       
      +0       0       0       0       0
  3736 ;;      Locals:         0       4       0       0       0       0       0       0       0       0       0       0       
      +0       0       0       0       0
  3737 ;;      Temps:          0       1       0       0       0       0       0       0       0       0       0       0       
      +0       0       0       0       0
  3738 ;;      Totals:         0       5       0       0       0       0       0       0       0       0       0       0       
      +0       0       0       0       0
  3739 ;;Total ram usage:        5 bytes
  3740 ;; Hardware stack levels used:    1
  3741 ;; Hardware stack levels required when called:    6
  3742 ;; This function calls:
  3743 ;;		___fltol
  3744 ;;		___xxtofl
  3745 ;;		_log2f
  3746 ;; This function is called by:
  3747 ;;		_lowPriorityISR
  3748 ;; This function uses a non-reentrant model
  3749 ;;
  3750                           
  3751                           	psect	text13
  3752  0033D4                     __ptext13:
  3753                           	callstack 0
  3754  0033D4                     _seven_segment:
  3755                           	callstack 18
  3756  0033D4                     
  3757                           ;../../Desktop/336/the3/the3.c: 90:     TMR1H = (30000 >> 8) & 0xff;
  3758  0033D4  909E               	bcf	158,0,c	;volatile
  3759  0033D6                     
  3760                           ;../../Desktop/336/the3/the3.c: 91:  TMR1L = 30000 & 0xff;
  3761  0033D6  0E01               	movlw	1
  3762  0033D8  6E90               	movwf	144,c	;volatile
  3763  0033DA                     
  3764                           ;../../Desktop/336/the3/the3.c: 92:     T1CON = 0xC9;
  3765  0033DA  0EBE               	movlw	low _SSEGMENT_NUMBERS_GLYPHS
  3766  0033DC  0100               	movlb	0	; () banked
  3767  0033DE  25D6               	addwf	_charNum& (0+255),w,b
  3768  0033E0  6ED9               	movwf	fsr2l,c
  3769  0033E2  0E00               	movlw	high _SSEGMENT_NUMBERS_GLYPHS
  3770  0033E4  21D7               	addwfc	(_charNum+1)& (0+255),w,b
  3771  0033E6  6EDA               	movwf	fsr2h,c
  3772  0033E8  50DF               	movf	indf2,w,c
  3773  0033EA  6E91               	movwf	145,c	;volatile
  3774  0033EC                     
  3775                           ; BSR set to: 0
  3776                           ;../../Desktop/336/the3/the3.c: 93: }
  3777  0033EC  0E0D               	movlw	13
  3778  0033EE  0100               	movlb	0	; () banked
  3779  0033F0  6FB2               	movwf	??_seven_segment& (0+255),b
  3780  0033F2  0EFB               	movlw	251
  3781  0033F4                     i1u370_27:
  3782  0033F4  2EE8               	decfsz	wreg,f,c
  3783  0033F6  D7FE               	bra	i1u370_27
  3784  0033F8  2FB2               	decfsz	??_seven_segment& (0+255),f,b
  3785  0033FA  D7FC               	bra	i1u370_27
  3786  0033FC  D000               	nop2	
  3787  0033FE                     
  3788                           ;../../Desktop/336/the3/the3.c: 94: 
  3789  0033FE  0E00               	movlw	0
  3790  003400  6E91               	movwf	145,c	;volatile
  3791  003402                     
  3792                           ;../../Desktop/336/the3/the3.c: 95: void adc_init(){
  3793  003402  0E04               	movlw	4
  3794  003404  6E90               	movwf	144,c	;volatile
  3795  003406                     
  3796                           ;../../Desktop/336/the3/the3.c: 96:     TRISH = 0x10;
  3797  003406  0EBE               	movlw	low _SSEGMENT_NUMBERS_GLYPHS
  3798  003408  0100               	movlb	0	; () banked
  3799  00340A  25D8               	addwf	_col& (0+255),w,b
  3800  00340C  6ED9               	movwf	fsr2l,c
  3801  00340E  0E00               	movlw	high _SSEGMENT_NUMBERS_GLYPHS
  3802  003410  21D9               	addwfc	(_col+1)& (0+255),w,b
  3803  003412  6EDA               	movwf	fsr2h,c
  3804  003414  50DF               	movf	indf2,w,c
  3805  003416  6E91               	movwf	145,c	;volatile
  3806  003418                     
  3807                           ; BSR set to: 0
  3808                           ;../../Desktop/336/the3/the3.c: 97: 
  3809  003418  0E0D               	movlw	13
  3810  00341A  0100               	movlb	0	; () banked
  3811  00341C  6FB2               	movwf	??_seven_segment& (0+255),b
  3812  00341E  0EFB               	movlw	251
  3813  003420                     i1u371_27:
  3814  003420  2EE8               	decfsz	wreg,f,c
  3815  003422  D7FE               	bra	i1u371_27
  3816  003424  2FB2               	decfsz	??_seven_segment& (0+255),f,b
  3817  003426  D7FC               	bra	i1u371_27
  3818  003428  D000               	nop2	
  3819                           
  3820                           ;../../Desktop/336/the3/the3.c: 98:     TRISB = 0x00;
  3821  00342A  0E00               	movlw	0
  3822  00342C  6E91               	movwf	145,c	;volatile
  3823                           
  3824                           ;../../Desktop/336/the3/the3.c: 99:     TRISD = 0x00;
  3825  00342E  0E08               	movlw	8
  3826  003430  6E90               	movwf	144,c	;volatile
  3827  003432                     
  3828                           ;../../Desktop/336/the3/the3.c: 100: 
  3829  003432  C0CE  F004         	movff	_row,___xxtofl@val
  3830  003436  C0CF  F005         	movff	_row+1,___xxtofl@val+1
  3831  00343A  0E00               	movlw	0
  3832  00343C  BE05               	btfsc	(___xxtofl@val+1)^0,7,c
  3833  00343E  0EFF               	movlw	-1
  3834  003440  6E06               	movwf	(___xxtofl@val+2)^0,c
  3835  003442  6E07               	movwf	(___xxtofl@val+3)^0,c
  3836  003444  0E01               	movlw	1
  3837  003446  EC1B  F018         	call	___xxtofl
  3838  00344A  C004  F0B3         	movff	?___xxtofl,_seven_segment$1347
  3839  00344E  C005  F0B4         	movff	?___xxtofl+1,_seven_segment$1347+1
  3840  003452  C006  F0B5         	movff	?___xxtofl+2,_seven_segment$1347+2
  3841  003456  C007  F0B6         	movff	?___xxtofl+3,_seven_segment$1347+3
  3842  00345A                     
  3843                           ;../../Desktop/336/the3/the3.c: 100: 
  3844  00345A  C0B3  F04E         	movff	_seven_segment$1347,log2f@x
  3845  00345E  C0B4  F04F         	movff	_seven_segment$1347+1,log2f@x+1
  3846  003462  C0B5  F050         	movff	_seven_segment$1347+2,log2f@x+2
  3847  003466  C0B6  F051         	movff	_seven_segment$1347+3,log2f@x+3
  3848  00346A  EC0D  F008         	call	_log2f	;wreg free
  3849  00346E  C04E  F0AA         	movff	?_log2f,___fltol@f1
  3850  003472  C04F  F0AB         	movff	?_log2f+1,___fltol@f1+1
  3851  003476  C050  F0AC         	movff	?_log2f+2,___fltol@f1+2
  3852  00347A  C051  F0AD         	movff	?_log2f+3,___fltol@f1+3
  3853  00347E  ECF5  F018         	call	___fltol	;wreg free
  3854  003482  0EBE               	movlw	low _SSEGMENT_NUMBERS_GLYPHS
  3855  003484  0100               	movlb	0	; () banked
  3856  003486  25AA               	addwf	?___fltol& (0+255),w,b
  3857  003488  6ED9               	movwf	fsr2l,c
  3858  00348A  0E00               	movlw	high _SSEGMENT_NUMBERS_GLYPHS
  3859  00348C  21AB               	addwfc	(?___fltol+1)& (0+255),w,b
  3860  00348E  6EDA               	movwf	fsr2h,c
  3861  003490  50DF               	movf	indf2,w,c
  3862  003492  6E91               	movwf	145,c	;volatile
  3863  003494                     
  3864                           ; BSR set to: 0
  3865                           ;../../Desktop/336/the3/the3.c: 101:     ADCON0 = 0x31;
  3866  003494  0E0D               	movlw	13
  3867  003496  0100               	movlb	0	; () banked
  3868  003498  6FB2               	movwf	??_seven_segment& (0+255),b
  3869  00349A  0EFB               	movlw	251
  3870  00349C                     i1u372_27:
  3871  00349C  2EE8               	decfsz	wreg,f,c
  3872  00349E  D7FE               	bra	i1u372_27
  3873  0034A0  2FB2               	decfsz	??_seven_segment& (0+255),f,b
  3874  0034A2  D7FC               	bra	i1u372_27
  3875  0034A4  D000               	nop2	
  3876  0034A6                     
  3877                           ;../../Desktop/336/the3/the3.c: 102:     ADCON1 = 0x00;
  3878  0034A6  0E00               	movlw	0
  3879  0034A8  6E91               	movwf	145,c	;volatile
  3880  0034AA  0012               	return		;funcret
  3881  0034AC                     __end_of_seven_segment:
  3882                           	callstack 0
  3883                           
  3884 ;; *************** function _log2f *****************
  3885 ;; Defined at:
  3886 ;;		line 29 in file "/opt/microchip/xc8/v2.30/pic/sources/c99/common/log2f.c"
  3887 ;; Parameters:    Size  Location     Type
  3888 ;;  x               4   77[COMRAM] float 
  3889 ;; Auto vars:     Size  Location     Type
  3890 ;;  ix              4   70[BANK0 ] unsigned long 
  3891 ;;  f               4   66[BANK0 ] float 
  3892 ;;  u               4   62[BANK0 ] struct .
  3893 ;;  hi              4   58[BANK0 ] float 
  3894 ;;  w               4   50[BANK0 ] float 
  3895 ;;  z               4   46[BANK0 ] float 
  3896 ;;  s               4   42[BANK0 ] float 
  3897 ;;  hfsq            4   38[BANK0 ] float 
  3898 ;;  lo              4   30[BANK0 ] float 
  3899 ;;  t2              4    8[BANK0 ] float 
  3900 ;;  t1              4    4[BANK0 ] float 
  3901 ;;  R               4    0[BANK0 ] float 
  3902 ;;  k               2   28[BANK0 ] int 
  3903 ;; Return value:  Size  Location     Type
  3904 ;;                  4   77[COMRAM] float 
  3905 ;; Registers used:
  3906 ;;		wreg, status,2, status,0, prodl, prodh, cstack
  3907 ;; Tracked objects:
  3908 ;;		On entry : 0/0
  3909 ;;		On exit  : 0/0
  3910 ;;		Unchanged: 0/0
  3911 ;; Data sizes:     COMRAM   BANK0   BANK1   BANK2   BANK3   BANK4   BANK5   BANK6   BANK7   BANK8   BANK9  BANK10  BANK1
      +1  BANK12  BANK13  BANK14  BANK15
  3912 ;;      Params:         4       0       0       0       0       0       0       0       0       0       0       0       
      +0       0       0       0       0
  3913 ;;      Locals:         0      74       0       0       0       0       0       0       0       0       0       0       
      +0       0       0       0       0
  3914 ;;      Temps:          6       0       0       0       0       0       0       0       0       0       0       0       
      +0       0       0       0       0
  3915 ;;      Totals:        10      74       0       0       0       0       0       0       0       0       0       0       
      +0       0       0       0       0
  3916 ;;Total ram usage:       84 bytes
  3917 ;; Hardware stack levels used:    1
  3918 ;; Hardware stack levels required when called:    5
  3919 ;; This function calls:
  3920 ;;		___fladd
  3921 ;;		___fldiv
  3922 ;;		___flmul
  3923 ;;		___flsub
  3924 ;;		___xxtofl
  3925 ;; This function is called by:
  3926 ;;		_seven_segment
  3927 ;; This function uses a non-reentrant model
  3928 ;;
  3929                           
  3930                           	psect	text14
  3931  00101A                     __ptext14:
  3932                           	callstack 0
  3933  00101A                     _log2f:
  3934                           	callstack 18
  3935  00101A  C0D0  F09E         	movff	log2f@F472,log2f@u
  3936  00101E  C0D1  F09F         	movff	log2f@F472+1,log2f@u+1
  3937  001022  C0D2  F0A0         	movff	log2f@F472+2,log2f@u+2
  3938  001026  C0D3  F0A1         	movff	log2f@F472+3,log2f@u+3
  3939  00102A  C04E  F09E         	movff	log2f@x,log2f@u
  3940  00102E  C04F  F09F         	movff	log2f@x+1,log2f@u+1
  3941  001032  C050  F0A0         	movff	log2f@x+2,log2f@u+2
  3942  001036  C051  F0A1         	movff	log2f@x+3,log2f@u+3
  3943  00103A  C09E  F0A6         	movff	log2f@u,log2f@ix
  3944  00103E  C09F  F0A7         	movff	log2f@u+1,log2f@ix+1
  3945  001042  C0A0  F0A8         	movff	log2f@u+2,log2f@ix+2
  3946  001046  C0A1  F0A9         	movff	log2f@u+3,log2f@ix+3
  3947  00104A  0E00               	movlw	0
  3948  00104C  0100               	movlb	0	; () banked
  3949  00104E  6F7D               	movwf	(log2f@k+1)& (0+255),b
  3950  001050  0E00               	movlw	0
  3951  001052  6F7C               	movwf	log2f@k& (0+255),b
  3952  001054                     
  3953                           ; BSR set to: 0
  3954  001054  51A9               	movf	(log2f@ix+3)& (0+255),w,b
  3955  001056  E109               	bnz	i1u274_20
  3956  001058  0E80               	movlw	128
  3957  00105A  5DA8               	subwf	(log2f@ix+2)& (0+255),w,b
  3958  00105C  A0D8               	btfss	status,0,c
  3959  00105E  EF33  F008         	goto	i1u274_21
  3960  001062  EF35  F008         	goto	i1u274_20
  3961  001066                     i1u274_21:
  3962  001066  EF53  F008         	goto	i1l2953
  3963  00106A                     i1u274_20:
  3964  00106A                     
  3965                           ; BSR set to: 0
  3966  00106A  C0A6  F052         	movff	log2f@ix,??_log2f
  3967  00106E  C0A7  F053         	movff	log2f@ix+1,??_log2f+1
  3968  001072  C0A8  F054         	movff	log2f@ix+2,??_log2f+2
  3969  001076  C0A9  F055         	movff	log2f@ix+3,??_log2f+3
  3970  00107A  0E20               	movlw	32
  3971  00107C  EF45  F008         	goto	i1u275_20
  3972  001080                     i1u275_25:
  3973  001080  90D8               	bcf	status,0,c
  3974  001082  3255               	rrcf	(??_log2f+3)^0,f,c
  3975  001084  3254               	rrcf	(??_log2f+2)^0,f,c
  3976  001086  3253               	rrcf	(??_log2f+1)^0,f,c
  3977  001088  3252               	rrcf	??_log2f^0,f,c
  3978  00108A                     i1u275_20:
  3979  00108A  2EE8               	decfsz	wreg,f,c
  3980  00108C  EF40  F008         	goto	i1u275_25
  3981  001090  5052               	movf	??_log2f^0,w,c
  3982  001092  1053               	iorwf	(??_log2f+1)^0,w,c
  3983  001094  1054               	iorwf	(??_log2f+2)^0,w,c
  3984  001096  1055               	iorwf	(??_log2f+3)^0,w,c
  3985  001098  B4D8               	btfsc	status,2,c
  3986  00109A  EF51  F008         	goto	i1u276_21
  3987  00109E  EF53  F008         	goto	i1u276_20
  3988  0010A2                     i1u276_21:
  3989  0010A2  EF15  F009         	goto	i1l2975
  3990  0010A6                     i1u276_20:
  3991  0010A6                     i1l2953:
  3992                           
  3993                           ; BSR set to: 0
  3994  0010A6  90D8               	bcf	status,0,c
  3995  0010A8  35A6               	rlcf	log2f@ix& (0+255),w,b
  3996  0010AA  6E52               	movwf	??_log2f^0,c
  3997  0010AC  35A7               	rlcf	(log2f@ix+1)& (0+255),w,b
  3998  0010AE  6E53               	movwf	(??_log2f+1)^0,c
  3999  0010B0  35A8               	rlcf	(log2f@ix+2)& (0+255),w,b
  4000  0010B2  6E54               	movwf	(??_log2f+2)^0,c
  4001  0010B4  35A9               	rlcf	(log2f@ix+3)& (0+255),w,b
  4002  0010B6  6E55               	movwf	(??_log2f+3)^0,c
  4003  0010B8  5052               	movf	??_log2f^0,w,c
  4004  0010BA  1053               	iorwf	(??_log2f+1)^0,w,c
  4005  0010BC  1054               	iorwf	(??_log2f+2)^0,w,c
  4006  0010BE  1055               	iorwf	(??_log2f+3)^0,w,c
  4007  0010C0  A4D8               	btfss	status,2,c
  4008  0010C2  EF65  F008         	goto	i1u277_21
  4009  0010C6  EF67  F008         	goto	i1u277_20
  4010  0010CA                     i1u277_21:
  4011  0010CA  EF95  F008         	goto	i1l2959
  4012  0010CE                     i1u277_20:
  4013  0010CE                     
  4014                           ; BSR set to: 0
  4015  0010CE  0E00               	movlw	0
  4016  0010D0  6E35               	movwf	___fldiv@b^0,c
  4017  0010D2  0E00               	movlw	0
  4018  0010D4  6E36               	movwf	(___fldiv@b+1)^0,c
  4019  0010D6  0E80               	movlw	128
  4020  0010D8  6E37               	movwf	(___fldiv@b+2)^0,c
  4021  0010DA  0EBF               	movlw	191
  4022  0010DC  6E38               	movwf	(___fldiv@b+3)^0,c
  4023  0010DE  C04E  F008         	movff	log2f@x,___flmul@a
  4024  0010E2  C04F  F009         	movff	log2f@x+1,___flmul@a+1
  4025  0010E6  C050  F00A         	movff	log2f@x+2,___flmul@a+2
  4026  0010EA  C051  F00B         	movff	log2f@x+3,___flmul@a+3
  4027  0010EE  C04E  F004         	movff	log2f@x,___flmul@b
  4028  0010F2  C04F  F005         	movff	log2f@x+1,___flmul@b+1
  4029  0010F6  C050  F006         	movff	log2f@x+2,___flmul@b+2
  4030  0010FA  C051  F007         	movff	log2f@x+3,___flmul@b+3
  4031  0010FE  EC9E  F00E         	call	___flmul	;wreg free
  4032  001102  C004  F039         	movff	?___flmul,___fldiv@a
  4033  001106  C005  F03A         	movff	?___flmul+1,___fldiv@a+1
  4034  00110A  C006  F03B         	movff	?___flmul+2,___fldiv@a+2
  4035  00110E  C007  F03C         	movff	?___flmul+3,___fldiv@a+3
  4036  001112  ECA6  F012         	call	___fldiv	;wreg free
  4037  001116  C035  F04E         	movff	?___fldiv,?_log2f
  4038  00111A  C036  F04F         	movff	?___fldiv+1,?_log2f+1
  4039  00111E  C037  F050         	movff	?___fldiv+2,?_log2f+2
  4040  001122  C038  F051         	movff	?___fldiv+3,?_log2f+3
  4041  001126  EF3D  F00C         	goto	i1l956
  4042  00112A                     i1l2959:
  4043                           
  4044                           ; BSR set to: 0
  4045  00112A  C0A6  F052         	movff	log2f@ix,??_log2f
  4046  00112E  C0A7  F053         	movff	log2f@ix+1,??_log2f+1
  4047  001132  C0A8  F054         	movff	log2f@ix+2,??_log2f+2
  4048  001136  C0A9  F055         	movff	log2f@ix+3,??_log2f+3
  4049  00113A  0E20               	movlw	32
  4050  00113C  EFA5  F008         	goto	i1u278_20
  4051  001140                     i1u278_25:
  4052  001140  90D8               	bcf	status,0,c
  4053  001142  3255               	rrcf	(??_log2f+3)^0,f,c
  4054  001144  3254               	rrcf	(??_log2f+2)^0,f,c
  4055  001146  3253               	rrcf	(??_log2f+1)^0,f,c
  4056  001148  3252               	rrcf	??_log2f^0,f,c
  4057  00114A                     i1u278_20:
  4058  00114A  2EE8               	decfsz	wreg,f,c
  4059  00114C  EFA0  F008         	goto	i1u278_25
  4060  001150  5052               	movf	??_log2f^0,w,c
  4061  001152  1053               	iorwf	(??_log2f+1)^0,w,c
  4062  001154  1054               	iorwf	(??_log2f+2)^0,w,c
  4063  001156  1055               	iorwf	(??_log2f+3)^0,w,c
  4064  001158  B4D8               	btfsc	status,2,c
  4065  00115A  EFB1  F008         	goto	i1u279_21
  4066  00115E  EFB3  F008         	goto	i1u279_20
  4067  001162                     i1u279_21:
  4068  001162  EFE5  F008         	goto	i1l2967
  4069  001166                     i1u279_20:
  4070  001166                     
  4071                           ; BSR set to: 0
  4072  001166  0E00               	movlw	0
  4073  001168  6FD5               	movwf	(_errno+1)& (0+255),b
  4074  00116A  0E21               	movlw	33
  4075  00116C  6FD4               	movwf	_errno& (0+255),b
  4076  00116E                     
  4077                           ; BSR set to: 0
  4078  00116E  C04E  F031         	movff	log2f@x,___flsub@a
  4079  001172  C04F  F032         	movff	log2f@x+1,___flsub@a+1
  4080  001176  C050  F033         	movff	log2f@x+2,___flsub@a+2
  4081  00117A  C051  F034         	movff	log2f@x+3,___flsub@a+3
  4082  00117E  C04E  F02D         	movff	log2f@x,___flsub@b
  4083  001182  C04F  F02E         	movff	log2f@x+1,___flsub@b+1
  4084  001186  C050  F02F         	movff	log2f@x+2,___flsub@b+2
  4085  00118A  C051  F030         	movff	log2f@x+3,___flsub@b+3
  4086  00118E  EC6F  F01B         	call	___flsub	;wreg free
  4087  001192  C02D  F035         	movff	?___flsub,___fldiv@b
  4088  001196  C02E  F036         	movff	?___flsub+1,___fldiv@b+1
  4089  00119A  C02F  F037         	movff	?___flsub+2,___fldiv@b+2
  4090  00119E  C030  F038         	movff	?___flsub+3,___fldiv@b+3
  4091  0011A2  0E00               	movlw	0
  4092  0011A4  6E39               	movwf	___fldiv@a^0,c
  4093  0011A6  0E00               	movlw	0
  4094  0011A8  6E3A               	movwf	(___fldiv@a+1)^0,c
  4095  0011AA  0E00               	movlw	0
  4096  0011AC  6E3B               	movwf	(___fldiv@a+2)^0,c
  4097  0011AE  0E00               	movlw	0
  4098  0011B0  6E3C               	movwf	(___fldiv@a+3)^0,c
  4099  0011B2  ECA6  F012         	call	___fldiv	;wreg free
  4100  0011B6  C035  F04E         	movff	?___fldiv,?_log2f
  4101  0011BA  C036  F04F         	movff	?___fldiv+1,?_log2f+1
  4102  0011BE  C037  F050         	movff	?___fldiv+2,?_log2f+2
  4103  0011C2  C038  F051         	movff	?___fldiv+3,?_log2f+3
  4104  0011C6  EF3D  F00C         	goto	i1l956
  4105  0011CA                     i1l2967:
  4106                           
  4107                           ; BSR set to: 0
  4108  0011CA  0EE7               	movlw	231
  4109  0011CC  277C               	addwf	log2f@k& (0+255),f,b
  4110  0011CE  0EFF               	movlw	255
  4111  0011D0  237D               	addwfc	(log2f@k+1)& (0+255),f,b
  4112  0011D2                     
  4113                           ; BSR set to: 0
  4114  0011D2  C04E  F004         	movff	log2f@x,___flmul@b
  4115  0011D6  C04F  F005         	movff	log2f@x+1,___flmul@b+1
  4116  0011DA  C050  F006         	movff	log2f@x+2,___flmul@b+2
  4117  0011DE  C051  F007         	movff	log2f@x+3,___flmul@b+3
  4118  0011E2  0E00               	movlw	0
  4119  0011E4  6E08               	movwf	___flmul@a^0,c
  4120  0011E6  0E00               	movlw	0
  4121  0011E8  6E09               	movwf	(___flmul@a+1)^0,c
  4122  0011EA  0E00               	movlw	0
  4123  0011EC  6E0A               	movwf	(___flmul@a+2)^0,c
  4124  0011EE  0E4C               	movlw	76
  4125  0011F0  6E0B               	movwf	(___flmul@a+3)^0,c
  4126  0011F2  EC9E  F00E         	call	___flmul	;wreg free
  4127  0011F6  C004  F04E         	movff	?___flmul,log2f@x
  4128  0011FA  C005  F04F         	movff	?___flmul+1,log2f@x+1
  4129  0011FE  C006  F050         	movff	?___flmul+2,log2f@x+2
  4130  001202  C007  F051         	movff	?___flmul+3,log2f@x+3
  4131  001206  C04E  F09E         	movff	log2f@x,log2f@u
  4132  00120A  C04F  F09F         	movff	log2f@x+1,log2f@u+1
  4133  00120E  C050  F0A0         	movff	log2f@x+2,log2f@u+2
  4134  001212  C051  F0A1         	movff	log2f@x+3,log2f@u+3
  4135  001216  C09E  F0A6         	movff	log2f@u,log2f@ix
  4136  00121A  C09F  F0A7         	movff	log2f@u+1,log2f@ix+1
  4137  00121E  C0A0  F0A8         	movff	log2f@u+2,log2f@ix+2
  4138  001222  C0A1  F0A9         	movff	log2f@u+3,log2f@ix+3
  4139  001226  EF42  F009         	goto	i1l2987
  4140  00122A                     i1l2975:
  4141                           
  4142                           ; BSR set to: 0
  4143  00122A  0E80               	movlw	128
  4144  00122C  5DA8               	subwf	(log2f@ix+2)& (0+255),w,b
  4145  00122E  0E7F               	movlw	127
  4146  001230  59A9               	subwfb	(log2f@ix+3)& (0+255),w,b
  4147  001232  A0D8               	btfss	status,0,c
  4148  001234  EF1E  F009         	goto	i1u280_21
  4149  001238  EF20  F009         	goto	i1u280_20
  4150  00123C                     i1u280_21:
  4151  00123C  EF2A  F009         	goto	i1l2981
  4152  001240                     i1u280_20:
  4153  001240                     
  4154                           ; BSR set to: 0
  4155  001240  C04E  F04E         	movff	log2f@x,?_log2f
  4156  001244  C04F  F04F         	movff	log2f@x+1,?_log2f+1
  4157  001248  C050  F050         	movff	log2f@x+2,?_log2f+2
  4158  00124C  C051  F051         	movff	log2f@x+3,?_log2f+3
  4159  001250  EF3D  F00C         	goto	i1l956
  4160  001254                     i1l2981:
  4161                           
  4162                           ; BSR set to: 0
  4163  001254  0E80               	movlw	128
  4164  001256  19A8               	xorwf	(log2f@ix+2)& (0+255),w,b
  4165  001258  E109               	bnz	i1u281_21
  4166  00125A  0E3F               	movlw	63
  4167  00125C  19A9               	xorwf	(log2f@ix+3)& (0+255),w,b
  4168  00125E  11A6               	iorwf	log2f@ix& (0+255),w,b
  4169  001260  11A7               	iorwf	(log2f@ix+1)& (0+255),w,b
  4170  001262  A4D8               	btfss	status,2,c
  4171  001264  EF36  F009         	goto	i1u281_21
  4172  001268  EF38  F009         	goto	i1u281_20
  4173  00126C                     i1u281_21:
  4174  00126C  EF42  F009         	goto	i1l2987
  4175  001270                     i1u281_20:
  4176  001270                     
  4177                           ; BSR set to: 0
  4178  001270  0E00               	movlw	0
  4179  001272  6E4E               	movwf	?_log2f^0,c
  4180  001274  0E00               	movlw	0
  4181  001276  6E4F               	movwf	(?_log2f+1)^0,c
  4182  001278  0E00               	movlw	0
  4183  00127A  6E50               	movwf	(?_log2f+2)^0,c
  4184  00127C  0E00               	movlw	0
  4185  00127E  6E51               	movwf	(?_log2f+3)^0,c
  4186  001280  EF3D  F00C         	goto	i1l956
  4187  001284                     i1l2987:
  4188  001284  0E0D               	movlw	13
  4189  001286  0100               	movlb	0	; () banked
  4190  001288  27A6               	addwf	log2f@ix& (0+255),f,b
  4191  00128A  0EFB               	movlw	251
  4192  00128C  23A7               	addwfc	(log2f@ix+1)& (0+255),f,b
  4193  00128E  0E4A               	movlw	74
  4194  001290  23A8               	addwfc	(log2f@ix+2)& (0+255),f,b
  4195  001292  0E00               	movlw	0
  4196  001294  23A9               	addwfc	(log2f@ix+3)& (0+255),f,b
  4197  001296  0E81               	movlw	129
  4198  001298  6E52               	movwf	??_log2f^0,c
  4199  00129A  0EFF               	movlw	255
  4200  00129C  6E53               	movwf	(??_log2f+1)^0,c
  4201  00129E  C0A6  F054         	movff	log2f@ix,??_log2f+2
  4202  0012A2  C0A7  F055         	movff	log2f@ix+1,??_log2f+3
  4203  0012A6  C0A8  F056         	movff	log2f@ix+2,??_log2f+4
  4204  0012AA  C0A9  F057         	movff	log2f@ix+3,??_log2f+5
  4205  0012AE  0E18               	movlw	24
  4206  0012B0  EF5F  F009         	goto	i1u282_20
  4207  0012B4                     i1u282_25:
  4208  0012B4  90D8               	bcf	status,0,c
  4209  0012B6  3257               	rrcf	(??_log2f+5)^0,f,c
  4210  0012B8  3256               	rrcf	(??_log2f+4)^0,f,c
  4211  0012BA  3255               	rrcf	(??_log2f+3)^0,f,c
  4212  0012BC  3254               	rrcf	(??_log2f+2)^0,f,c
  4213  0012BE                     i1u282_20:
  4214  0012BE  2EE8               	decfsz	wreg,f,c
  4215  0012C0  EF5A  F009         	goto	i1u282_25
  4216  0012C4  5052               	movf	??_log2f^0,w,c
  4217  0012C6  2654               	addwf	(??_log2f+2)^0,f,c
  4218  0012C8  5053               	movf	(??_log2f+1)^0,w,c
  4219  0012CA  2255               	addwfc	(??_log2f+3)^0,f,c
  4220  0012CC  5054               	movf	(??_log2f+2)^0,w,c
  4221  0012CE  277C               	addwf	log2f@k& (0+255),f,b
  4222  0012D0  5055               	movf	(??_log2f+3)^0,w,c
  4223  0012D2  237D               	addwfc	(log2f@k+1)& (0+255),f,b
  4224  0012D4  0EFF               	movlw	255
  4225  0012D6  15A6               	andwf	log2f@ix& (0+255),w,b
  4226  0012D8  6E52               	movwf	??_log2f^0,c
  4227  0012DA  0EFF               	movlw	255
  4228  0012DC  15A7               	andwf	(log2f@ix+1)& (0+255),w,b
  4229  0012DE  6E53               	movwf	(??_log2f+1)^0,c
  4230  0012E0  0E7F               	movlw	127
  4231  0012E2  15A8               	andwf	(log2f@ix+2)& (0+255),w,b
  4232  0012E4  6E54               	movwf	(??_log2f+2)^0,c
  4233  0012E6  0E00               	movlw	0
  4234  0012E8  15A9               	andwf	(log2f@ix+3)& (0+255),w,b
  4235  0012EA  6E55               	movwf	(??_log2f+3)^0,c
  4236  0012EC  0EF3               	movlw	243
  4237  0012EE  2452               	addwf	??_log2f^0,w,c
  4238  0012F0  6FA6               	movwf	log2f@ix& (0+255),b
  4239  0012F2  0E04               	movlw	4
  4240  0012F4  2053               	addwfc	(??_log2f+1)^0,w,c
  4241  0012F6  6FA7               	movwf	(log2f@ix+1)& (0+255),b
  4242  0012F8  0E35               	movlw	53
  4243  0012FA  2054               	addwfc	(??_log2f+2)^0,w,c
  4244  0012FC  6FA8               	movwf	(log2f@ix+2)& (0+255),b
  4245  0012FE  0E3F               	movlw	63
  4246  001300  2055               	addwfc	(??_log2f+3)^0,w,c
  4247  001302  6FA9               	movwf	(log2f@ix+3)& (0+255),b
  4248  001304                     
  4249                           ; BSR set to: 0
  4250  001304  C0A6  F09E         	movff	log2f@ix,log2f@u
  4251  001308  C0A7  F09F         	movff	log2f@ix+1,log2f@u+1
  4252  00130C  C0A8  F0A0         	movff	log2f@ix+2,log2f@u+2
  4253  001310  C0A9  F0A1         	movff	log2f@ix+3,log2f@u+3
  4254  001314                     
  4255                           ; BSR set to: 0
  4256  001314  C09E  F04E         	movff	log2f@u,log2f@x
  4257  001318  C09F  F04F         	movff	log2f@u+1,log2f@x+1
  4258  00131C  C0A0  F050         	movff	log2f@u+2,log2f@x+2
  4259  001320  C0A1  F051         	movff	log2f@u+3,log2f@x+3
  4260  001324                     
  4261                           ; BSR set to: 0
  4262  001324  C04E  F01D         	movff	log2f@x,___fladd@b
  4263  001328  C04F  F01E         	movff	log2f@x+1,___fladd@b+1
  4264  00132C  C050  F01F         	movff	log2f@x+2,___fladd@b+2
  4265  001330  C051  F020         	movff	log2f@x+3,___fladd@b+3
  4266  001334  0E00               	movlw	0
  4267  001336  6E21               	movwf	___fladd@a^0,c
  4268  001338  0E00               	movlw	0
  4269  00133A  6E22               	movwf	(___fladd@a+1)^0,c
  4270  00133C  0E80               	movlw	128
  4271  00133E  6E23               	movwf	(___fladd@a+2)^0,c
  4272  001340  0EBF               	movlw	191
  4273  001342  6E24               	movwf	(___fladd@a+3)^0,c
  4274  001344  EC3E  F00C         	call	___fladd	;wreg free
  4275  001348  C01D  F0A2         	movff	?___fladd,log2f@f
  4276  00134C  C01E  F0A3         	movff	?___fladd+1,log2f@f+1
  4277  001350  C01F  F0A4         	movff	?___fladd+2,log2f@f+2
  4278  001354  C020  F0A5         	movff	?___fladd+3,log2f@f+3
  4279  001358  C0A2  F035         	movff	log2f@f,___fldiv@b
  4280  00135C  C0A3  F036         	movff	log2f@f+1,___fldiv@b+1
  4281  001360  C0A4  F037         	movff	log2f@f+2,___fldiv@b+2
  4282  001364  C0A5  F038         	movff	log2f@f+3,___fldiv@b+3
  4283  001368  0E00               	movlw	0
  4284  00136A  6E21               	movwf	___fladd@a^0,c
  4285  00136C  0E00               	movlw	0
  4286  00136E  6E22               	movwf	(___fladd@a+1)^0,c
  4287  001370  0E00               	movlw	0
  4288  001372  6E23               	movwf	(___fladd@a+2)^0,c
  4289  001374  0E40               	movlw	64
  4290  001376  6E24               	movwf	(___fladd@a+3)^0,c
  4291  001378  C0A2  F01D         	movff	log2f@f,___fladd@b
  4292  00137C  C0A3  F01E         	movff	log2f@f+1,___fladd@b+1
  4293  001380  C0A4  F01F         	movff	log2f@f+2,___fladd@b+2
  4294  001384  C0A5  F020         	movff	log2f@f+3,___fladd@b+3
  4295  001388  EC3E  F00C         	call	___fladd	;wreg free
  4296  00138C  C01D  F039         	movff	?___fladd,___fldiv@a
  4297  001390  C01E  F03A         	movff	?___fladd+1,___fldiv@a+1
  4298  001394  C01F  F03B         	movff	?___fladd+2,___fldiv@a+2
  4299  001398  C020  F03C         	movff	?___fladd+3,___fldiv@a+3
  4300  00139C  ECA6  F012         	call	___fldiv	;wreg free
  4301  0013A0  C035  F08A         	movff	?___fldiv,log2f@s
  4302  0013A4  C036  F08B         	movff	?___fldiv+1,log2f@s+1
  4303  0013A8  C037  F08C         	movff	?___fldiv+2,log2f@s+2
  4304  0013AC  C038  F08D         	movff	?___fldiv+3,log2f@s+3
  4305  0013B0  C08A  F004         	movff	log2f@s,___flmul@b
  4306  0013B4  C08B  F005         	movff	log2f@s+1,___flmul@b+1
  4307  0013B8  C08C  F006         	movff	log2f@s+2,___flmul@b+2
  4308  0013BC  C08D  F007         	movff	log2f@s+3,___flmul@b+3
  4309  0013C0  C08A  F008         	movff	log2f@s,___flmul@a
  4310  0013C4  C08B  F009         	movff	log2f@s+1,___flmul@a+1
  4311  0013C8  C08C  F00A         	movff	log2f@s+2,___flmul@a+2
  4312  0013CC  C08D  F00B         	movff	log2f@s+3,___flmul@a+3
  4313  0013D0  EC9E  F00E         	call	___flmul	;wreg free
  4314  0013D4  C004  F08E         	movff	?___flmul,log2f@z
  4315  0013D8  C005  F08F         	movff	?___flmul+1,log2f@z+1
  4316  0013DC  C006  F090         	movff	?___flmul+2,log2f@z+2
  4317  0013E0  C007  F091         	movff	?___flmul+3,log2f@z+3
  4318  0013E4  C08E  F004         	movff	log2f@z,___flmul@b
  4319  0013E8  C08F  F005         	movff	log2f@z+1,___flmul@b+1
  4320  0013EC  C090  F006         	movff	log2f@z+2,___flmul@b+2
  4321  0013F0  C091  F007         	movff	log2f@z+3,___flmul@b+3
  4322  0013F4  C08E  F008         	movff	log2f@z,___flmul@a
  4323  0013F8  C08F  F009         	movff	log2f@z+1,___flmul@a+1
  4324  0013FC  C090  F00A         	movff	log2f@z+2,___flmul@a+2
  4325  001400  C091  F00B         	movff	log2f@z+3,___flmul@a+3
  4326  001404  EC9E  F00E         	call	___flmul	;wreg free
  4327  001408  C004  F092         	movff	?___flmul,log2f@w
  4328  00140C  C005  F093         	movff	?___flmul+1,log2f@w+1
  4329  001410  C006  F094         	movff	?___flmul+2,log2f@w+2
  4330  001414  C007  F095         	movff	?___flmul+3,log2f@w+3
  4331  001418  0E13               	movlw	19
  4332  00141A  6E21               	movwf	___fladd@a^0,c
  4333  00141C  0ECE               	movlw	206
  4334  00141E  6E22               	movwf	(___fladd@a+1)^0,c
  4335  001420  0ECC               	movlw	204
  4336  001422  6E23               	movwf	(___fladd@a+2)^0,c
  4337  001424  0E3E               	movlw	62
  4338  001426  6E24               	movwf	(___fladd@a+3)^0,c
  4339  001428  0E26               	movlw	38
  4340  00142A  6E08               	movwf	___flmul@a^0,c
  4341  00142C  0E9E               	movlw	158
  4342  00142E  6E09               	movwf	(___flmul@a+1)^0,c
  4343  001430  0E78               	movlw	120
  4344  001432  6E0A               	movwf	(___flmul@a+2)^0,c
  4345  001434  0E3E               	movlw	62
  4346  001436  6E0B               	movwf	(___flmul@a+3)^0,c
  4347  001438  C092  F004         	movff	log2f@w,___flmul@b
  4348  00143C  C093  F005         	movff	log2f@w+1,___flmul@b+1
  4349  001440  C094  F006         	movff	log2f@w+2,___flmul@b+2
  4350  001444  C095  F007         	movff	log2f@w+3,___flmul@b+3
  4351  001448  EC9E  F00E         	call	___flmul	;wreg free
  4352  00144C  C004  F01D         	movff	?___flmul,___fladd@b
  4353  001450  C005  F01E         	movff	?___flmul+1,___fladd@b+1
  4354  001454  C006  F01F         	movff	?___flmul+2,___fladd@b+2
  4355  001458  C007  F020         	movff	?___flmul+3,___fladd@b+3
  4356  00145C  EC3E  F00C         	call	___fladd	;wreg free
  4357  001460  C01D  F096         	movff	?___fladd,_log2f$1348
  4358  001464  C01E  F097         	movff	?___fladd+1,_log2f$1348+1
  4359  001468  C01F  F098         	movff	?___fladd+2,_log2f$1348+2
  4360  00146C  C020  F099         	movff	?___fladd+3,_log2f$1348+3
  4361  001470  C096  F004         	movff	_log2f$1348,___flmul@b
  4362  001474  C097  F005         	movff	_log2f$1348+1,___flmul@b+1
  4363  001478  C098  F006         	movff	_log2f$1348+2,___flmul@b+2
  4364  00147C  C099  F007         	movff	_log2f$1348+3,___flmul@b+3
  4365  001480  C092  F008         	movff	log2f@w,___flmul@a
  4366  001484  C093  F009         	movff	log2f@w+1,___flmul@a+1
  4367  001488  C094  F00A         	movff	log2f@w+2,___flmul@a+2
  4368  00148C  C095  F00B         	movff	log2f@w+3,___flmul@a+3
  4369  001490  EC9E  F00E         	call	___flmul	;wreg free
  4370  001494  C004  F064         	movff	?___flmul,log2f@t1
  4371  001498  C005  F065         	movff	?___flmul+1,log2f@t1+1
  4372  00149C  C006  F066         	movff	?___flmul+2,log2f@t1+2
  4373  0014A0  C007  F067         	movff	?___flmul+3,log2f@t1+3
  4374  0014A4  0EAA               	movlw	170
  4375  0014A6  6E21               	movwf	___fladd@a^0,c
  4376  0014A8  0EAA               	movlw	170
  4377  0014AA  6E22               	movwf	(___fladd@a+1)^0,c
  4378  0014AC  0E2A               	movlw	42
  4379  0014AE  6E23               	movwf	(___fladd@a+2)^0,c
  4380  0014B0  0E3F               	movlw	63
  4381  0014B2  6E24               	movwf	(___fladd@a+3)^0,c
  4382  0014B4  0EEE               	movlw	238
  4383  0014B6  6E08               	movwf	___flmul@a^0,c
  4384  0014B8  0EE9               	movlw	233
  4385  0014BA  6E09               	movwf	(___flmul@a+1)^0,c
  4386  0014BC  0E91               	movlw	145
  4387  0014BE  6E0A               	movwf	(___flmul@a+2)^0,c
  4388  0014C0  0E3E               	movlw	62
  4389  0014C2  6E0B               	movwf	(___flmul@a+3)^0,c
  4390  0014C4  C092  F004         	movff	log2f@w,___flmul@b
  4391  0014C8  C093  F005         	movff	log2f@w+1,___flmul@b+1
  4392  0014CC  C094  F006         	movff	log2f@w+2,___flmul@b+2
  4393  0014D0  C095  F007         	movff	log2f@w+3,___flmul@b+3
  4394  0014D4  EC9E  F00E         	call	___flmul	;wreg free
  4395  0014D8  C004  F01D         	movff	?___flmul,___fladd@b
  4396  0014DC  C005  F01E         	movff	?___flmul+1,___fladd@b+1
  4397  0014E0  C006  F01F         	movff	?___flmul+2,___fladd@b+2
  4398  0014E4  C007  F020         	movff	?___flmul+3,___fladd@b+3
  4399  0014E8  EC3E  F00C         	call	___fladd	;wreg free
  4400  0014EC  C01D  F096         	movff	?___fladd,_log2f$1348
  4401  0014F0  C01E  F097         	movff	?___fladd+1,_log2f$1348+1
  4402  0014F4  C01F  F098         	movff	?___fladd+2,_log2f$1348+2
  4403  0014F8  C020  F099         	movff	?___fladd+3,_log2f$1348+3
  4404  0014FC  C096  F004         	movff	_log2f$1348,___flmul@b
  4405  001500  C097  F005         	movff	_log2f$1348+1,___flmul@b+1
  4406  001504  C098  F006         	movff	_log2f$1348+2,___flmul@b+2
  4407  001508  C099  F007         	movff	_log2f$1348+3,___flmul@b+3
  4408  00150C  C08E  F008         	movff	log2f@z,___flmul@a
  4409  001510  C08F  F009         	movff	log2f@z+1,___flmul@a+1
  4410  001514  C090  F00A         	movff	log2f@z+2,___flmul@a+2
  4411  001518  C091  F00B         	movff	log2f@z+3,___flmul@a+3
  4412  00151C  EC9E  F00E         	call	___flmul	;wreg free
  4413  001520  C004  F068         	movff	?___flmul,log2f@t2
  4414  001524  C005  F069         	movff	?___flmul+1,log2f@t2+1
  4415  001528  C006  F06A         	movff	?___flmul+2,log2f@t2+2
  4416  00152C  C007  F06B         	movff	?___flmul+3,log2f@t2+3
  4417  001530  C068  F01D         	movff	log2f@t2,___fladd@b
  4418  001534  C069  F01E         	movff	log2f@t2+1,___fladd@b+1
  4419  001538  C06A  F01F         	movff	log2f@t2+2,___fladd@b+2
  4420  00153C  C06B  F020         	movff	log2f@t2+3,___fladd@b+3
  4421  001540  C064  F021         	movff	log2f@t1,___fladd@a
  4422  001544  C065  F022         	movff	log2f@t1+1,___fladd@a+1
  4423  001548  C066  F023         	movff	log2f@t1+2,___fladd@a+2
  4424  00154C  C067  F024         	movff	log2f@t1+3,___fladd@a+3
  4425  001550  EC3E  F00C         	call	___fladd	;wreg free
  4426  001554  C01D  F060         	movff	?___fladd,log2f@R
  4427  001558  C01E  F061         	movff	?___fladd+1,log2f@R+1
  4428  00155C  C01F  F062         	movff	?___fladd+2,log2f@R+2
  4429  001560  C020  F063         	movff	?___fladd+3,log2f@R+3
  4430  001564  0E00               	movlw	0
  4431  001566  6E08               	movwf	___flmul@a^0,c
  4432  001568  0E00               	movlw	0
  4433  00156A  6E09               	movwf	(___flmul@a+1)^0,c
  4434  00156C  0E00               	movlw	0
  4435  00156E  6E0A               	movwf	(___flmul@a+2)^0,c
  4436  001570  0E3F               	movlw	63
  4437  001572  6E0B               	movwf	(___flmul@a+3)^0,c
  4438  001574  C0A2  F004         	movff	log2f@f,___flmul@b
  4439  001578  C0A3  F005         	movff	log2f@f+1,___flmul@b+1
  4440  00157C  C0A4  F006         	movff	log2f@f+2,___flmul@b+2
  4441  001580  C0A5  F007         	movff	log2f@f+3,___flmul@b+3
  4442  001584  EC9E  F00E         	call	___flmul	;wreg free
  4443  001588  C004  F096         	movff	?___flmul,_log2f$1348
  4444  00158C  C005  F097         	movff	?___flmul+1,_log2f$1348+1
  4445  001590  C006  F098         	movff	?___flmul+2,_log2f$1348+2
  4446  001594  C007  F099         	movff	?___flmul+3,_log2f$1348+3
  4447  001598  C096  F004         	movff	_log2f$1348,___flmul@b
  4448  00159C  C097  F005         	movff	_log2f$1348+1,___flmul@b+1
  4449  0015A0  C098  F006         	movff	_log2f$1348+2,___flmul@b+2
  4450  0015A4  C099  F007         	movff	_log2f$1348+3,___flmul@b+3
  4451  0015A8  C0A2  F008         	movff	log2f@f,___flmul@a
  4452  0015AC  C0A3  F009         	movff	log2f@f+1,___flmul@a+1
  4453  0015B0  C0A4  F00A         	movff	log2f@f+2,___flmul@a+2
  4454  0015B4  C0A5  F00B         	movff	log2f@f+3,___flmul@a+3
  4455  0015B8  EC9E  F00E         	call	___flmul	;wreg free
  4456  0015BC  C004  F086         	movff	?___flmul,log2f@hfsq
  4457  0015C0  C005  F087         	movff	?___flmul+1,log2f@hfsq+1
  4458  0015C4  C006  F088         	movff	?___flmul+2,log2f@hfsq+2
  4459  0015C8  C007  F089         	movff	?___flmul+3,log2f@hfsq+3
  4460  0015CC  C0A2  F02D         	movff	log2f@f,___flsub@b
  4461  0015D0  C0A3  F02E         	movff	log2f@f+1,___flsub@b+1
  4462  0015D4  C0A4  F02F         	movff	log2f@f+2,___flsub@b+2
  4463  0015D8  C0A5  F030         	movff	log2f@f+3,___flsub@b+3
  4464  0015DC  C086  F031         	movff	log2f@hfsq,___flsub@a
  4465  0015E0  C087  F032         	movff	log2f@hfsq+1,___flsub@a+1
  4466  0015E4  C088  F033         	movff	log2f@hfsq+2,___flsub@a+2
  4467  0015E8  C089  F034         	movff	log2f@hfsq+3,___flsub@a+3
  4468  0015EC  EC6F  F01B         	call	___flsub	;wreg free
  4469  0015F0  C02D  F09A         	movff	?___flsub,log2f@hi
  4470  0015F4  C02E  F09B         	movff	?___flsub+1,log2f@hi+1
  4471  0015F8  C02F  F09C         	movff	?___flsub+2,log2f@hi+2
  4472  0015FC  C030  F09D         	movff	?___flsub+3,log2f@hi+3
  4473  001600  C09A  F09E         	movff	log2f@hi,log2f@u
  4474  001604  C09B  F09F         	movff	log2f@hi+1,log2f@u+1
  4475  001608  C09C  F0A0         	movff	log2f@hi+2,log2f@u+2
  4476  00160C  C09D  F0A1         	movff	log2f@hi+3,log2f@u+3
  4477  001610  0E00               	movlw	0
  4478  001612  0100               	movlb	0	; () banked
  4479  001614  179E               	andwf	log2f@u& (0+255),f,b
  4480  001616  0EF0               	movlw	240
  4481  001618  179F               	andwf	(log2f@u+1)& (0+255),f,b
  4482  00161A  0EFF               	movlw	255
  4483  00161C  17A0               	andwf	(log2f@u+2)& (0+255),f,b
  4484  00161E  0EFF               	movlw	255
  4485  001620  17A1               	andwf	(log2f@u+3)& (0+255),f,b
  4486  001622                     
  4487                           ; BSR set to: 0
  4488  001622  C09E  F09A         	movff	log2f@u,log2f@hi
  4489  001626  C09F  F09B         	movff	log2f@u+1,log2f@hi+1
  4490  00162A  C0A0  F09C         	movff	log2f@u+2,log2f@hi+2
  4491  00162E  C0A1  F09D         	movff	log2f@u+3,log2f@hi+3
  4492  001632                     
  4493                           ; BSR set to: 0
  4494  001632  C09A  F031         	movff	log2f@hi,___flsub@a
  4495  001636  C09B  F032         	movff	log2f@hi+1,___flsub@a+1
  4496  00163A  C09C  F033         	movff	log2f@hi+2,___flsub@a+2
  4497  00163E  C09D  F034         	movff	log2f@hi+3,___flsub@a+3
  4498  001642  C0A2  F02D         	movff	log2f@f,___flsub@b
  4499  001646  C0A3  F02E         	movff	log2f@f+1,___flsub@b+1
  4500  00164A  C0A4  F02F         	movff	log2f@f+2,___flsub@b+2
  4501  00164E  C0A5  F030         	movff	log2f@f+3,___flsub@b+3
  4502  001652  EC6F  F01B         	call	___flsub	;wreg free
  4503  001656  C02D  F06C         	movff	?___flsub,_log2f$1349
  4504  00165A  C02E  F06D         	movff	?___flsub+1,_log2f$1349+1
  4505  00165E  C02F  F06E         	movff	?___flsub+2,_log2f$1349+2
  4506  001662  C030  F06F         	movff	?___flsub+3,_log2f$1349+3
  4507  001666  C086  F031         	movff	log2f@hfsq,___flsub@a
  4508  00166A  C087  F032         	movff	log2f@hfsq+1,___flsub@a+1
  4509  00166E  C088  F033         	movff	log2f@hfsq+2,___flsub@a+2
  4510  001672  C089  F034         	movff	log2f@hfsq+3,___flsub@a+3
  4511  001676  C06C  F02D         	movff	_log2f$1349,___flsub@b
  4512  00167A  C06D  F02E         	movff	_log2f$1349+1,___flsub@b+1
  4513  00167E  C06E  F02F         	movff	_log2f$1349+2,___flsub@b+2
  4514  001682  C06F  F030         	movff	_log2f$1349+3,___flsub@b+3
  4515  001686  EC6F  F01B         	call	___flsub	;wreg free
  4516  00168A  C02D  F070         	movff	?___flsub,_log2f$1350
  4517  00168E  C02E  F071         	movff	?___flsub+1,_log2f$1350+1
  4518  001692  C02F  F072         	movff	?___flsub+2,_log2f$1350+2
  4519  001696  C030  F073         	movff	?___flsub+3,_log2f$1350+3
  4520  00169A  C08A  F008         	movff	log2f@s,___flmul@a
  4521  00169E  C08B  F009         	movff	log2f@s+1,___flmul@a+1
  4522  0016A2  C08C  F00A         	movff	log2f@s+2,___flmul@a+2
  4523  0016A6  C08D  F00B         	movff	log2f@s+3,___flmul@a+3
  4524  0016AA  C060  F021         	movff	log2f@R,___fladd@a
  4525  0016AE  C061  F022         	movff	log2f@R+1,___fladd@a+1
  4526  0016B2  C062  F023         	movff	log2f@R+2,___fladd@a+2
  4527  0016B6  C063  F024         	movff	log2f@R+3,___fladd@a+3
  4528  0016BA  C086  F01D         	movff	log2f@hfsq,___fladd@b
  4529  0016BE  C087  F01E         	movff	log2f@hfsq+1,___fladd@b+1
  4530  0016C2  C088  F01F         	movff	log2f@hfsq+2,___fladd@b+2
  4531  0016C6  C089  F020         	movff	log2f@hfsq+3,___fladd@b+3
  4532  0016CA  EC3E  F00C         	call	___fladd	;wreg free
  4533  0016CE  C01D  F004         	movff	?___fladd,___flmul@b
  4534  0016D2  C01E  F005         	movff	?___fladd+1,___flmul@b+1
  4535  0016D6  C01F  F006         	movff	?___fladd+2,___flmul@b+2
  4536  0016DA  C020  F007         	movff	?___fladd+3,___flmul@b+3
  4537  0016DE  EC9E  F00E         	call	___flmul	;wreg free
  4538  0016E2  C004  F082         	movff	?___flmul,_log2f$1351
  4539  0016E6  C005  F083         	movff	?___flmul+1,_log2f$1351+1
  4540  0016EA  C006  F084         	movff	?___flmul+2,_log2f$1351+2
  4541  0016EE  C007  F085         	movff	?___flmul+3,_log2f$1351+3
  4542  0016F2  C070  F01D         	movff	_log2f$1350,___fladd@b
  4543  0016F6  C071  F01E         	movff	_log2f$1350+1,___fladd@b+1
  4544  0016FA  C072  F01F         	movff	_log2f$1350+2,___fladd@b+2
  4545  0016FE  C073  F020         	movff	_log2f$1350+3,___fladd@b+3
  4546  001702  C082  F021         	movff	_log2f$1351,___fladd@a
  4547  001706  C083  F022         	movff	_log2f$1351+1,___fladd@a+1
  4548  00170A  C084  F023         	movff	_log2f$1351+2,___fladd@a+2
  4549  00170E  C085  F024         	movff	_log2f$1351+3,___fladd@a+3
  4550  001712  EC3E  F00C         	call	___fladd	;wreg free
  4551  001716  C01D  F07E         	movff	?___fladd,log2f@lo
  4552  00171A  C01E  F07F         	movff	?___fladd+1,log2f@lo+1
  4553  00171E  C01F  F080         	movff	?___fladd+2,log2f@lo+2
  4554  001722  C020  F081         	movff	?___fladd+3,log2f@lo+3
  4555  001726  0ED4               	movlw	212
  4556  001728  6E08               	movwf	___flmul@a^0,c
  4557  00172A  0E9A               	movlw	154
  4558  00172C  6E09               	movwf	(___flmul@a+1)^0,c
  4559  00172E  0E38               	movlw	56
  4560  001730  6E0A               	movwf	(___flmul@a+2)^0,c
  4561  001732  0EB9               	movlw	185
  4562  001734  6E0B               	movwf	(___flmul@a+3)^0,c
  4563  001736  C09A  F021         	movff	log2f@hi,___fladd@a
  4564  00173A  C09B  F022         	movff	log2f@hi+1,___fladd@a+1
  4565  00173E  C09C  F023         	movff	log2f@hi+2,___fladd@a+2
  4566  001742  C09D  F024         	movff	log2f@hi+3,___fladd@a+3
  4567  001746  C07E  F01D         	movff	log2f@lo,___fladd@b
  4568  00174A  C07F  F01E         	movff	log2f@lo+1,___fladd@b+1
  4569  00174E  C080  F01F         	movff	log2f@lo+2,___fladd@b+2
  4570  001752  C081  F020         	movff	log2f@lo+3,___fladd@b+3
  4571  001756  EC3E  F00C         	call	___fladd	;wreg free
  4572  00175A  C01D  F004         	movff	?___fladd,___flmul@b
  4573  00175E  C01E  F005         	movff	?___fladd+1,___flmul@b+1
  4574  001762  C01F  F006         	movff	?___fladd+2,___flmul@b+2
  4575  001766  C020  F007         	movff	?___fladd+3,___flmul@b+3
  4576  00176A  EC9E  F00E         	call	___flmul	;wreg free
  4577  00176E  C004  F074         	movff	?___flmul,_log2f$1352
  4578  001772  C005  F075         	movff	?___flmul+1,_log2f$1352+1
  4579  001776  C006  F076         	movff	?___flmul+2,_log2f$1352+2
  4580  00177A  C007  F077         	movff	?___flmul+3,_log2f$1352+3
  4581  00177E  0E00               	movlw	0
  4582  001780  6E08               	movwf	___flmul@a^0,c
  4583  001782  0EB0               	movlw	176
  4584  001784  6E09               	movwf	(___flmul@a+1)^0,c
  4585  001786  0EB8               	movlw	184
  4586  001788  6E0A               	movwf	(___flmul@a+2)^0,c
  4587  00178A  0E3F               	movlw	63
  4588  00178C  6E0B               	movwf	(___flmul@a+3)^0,c
  4589  00178E  C07E  F004         	movff	log2f@lo,___flmul@b
  4590  001792  C07F  F005         	movff	log2f@lo+1,___flmul@b+1
  4591  001796  C080  F006         	movff	log2f@lo+2,___flmul@b+2
  4592  00179A  C081  F007         	movff	log2f@lo+3,___flmul@b+3
  4593  00179E  EC9E  F00E         	call	___flmul	;wreg free
  4594  0017A2  C004  F021         	movff	?___flmul,___fladd@a
  4595  0017A6  C005  F022         	movff	?___flmul+1,___fladd@a+1
  4596  0017AA  C006  F023         	movff	?___flmul+2,___fladd@a+2
  4597  0017AE  C007  F024         	movff	?___flmul+3,___fladd@a+3
  4598  0017B2  C074  F01D         	movff	_log2f$1352,___fladd@b
  4599  0017B6  C075  F01E         	movff	_log2f$1352+1,___fladd@b+1
  4600  0017BA  C076  F01F         	movff	_log2f$1352+2,___fladd@b+2
  4601  0017BE  C077  F020         	movff	_log2f$1352+3,___fladd@b+3
  4602  0017C2  EC3E  F00C         	call	___fladd	;wreg free
  4603  0017C6  C01D  F078         	movff	?___fladd,_log2f$1353
  4604  0017CA  C01E  F079         	movff	?___fladd+1,_log2f$1353+1
  4605  0017CE  C01F  F07A         	movff	?___fladd+2,_log2f$1353+2
  4606  0017D2  C020  F07B         	movff	?___fladd+3,_log2f$1353+3
  4607  0017D6  0E00               	movlw	0
  4608  0017D8  6E08               	movwf	___flmul@a^0,c
  4609  0017DA  0EB0               	movlw	176
  4610  0017DC  6E09               	movwf	(___flmul@a+1)^0,c
  4611  0017DE  0EB8               	movlw	184
  4612  0017E0  6E0A               	movwf	(___flmul@a+2)^0,c
  4613  0017E2  0E3F               	movlw	63
  4614  0017E4  6E0B               	movwf	(___flmul@a+3)^0,c
  4615  0017E6  C09A  F004         	movff	log2f@hi,___flmul@b
  4616  0017EA  C09B  F005         	movff	log2f@hi+1,___flmul@b+1
  4617  0017EE  C09C  F006         	movff	log2f@hi+2,___flmul@b+2
  4618  0017F2  C09D  F007         	movff	log2f@hi+3,___flmul@b+3
  4619  0017F6  EC9E  F00E         	call	___flmul	;wreg free
  4620  0017FA  C004  F021         	movff	?___flmul,___fladd@a
  4621  0017FE  C005  F022         	movff	?___flmul+1,___fladd@a+1
  4622  001802  C006  F023         	movff	?___flmul+2,___fladd@a+2
  4623  001806  C007  F024         	movff	?___flmul+3,___fladd@a+3
  4624  00180A  C078  F01D         	movff	_log2f$1353,___fladd@b
  4625  00180E  C079  F01E         	movff	_log2f$1353+1,___fladd@b+1
  4626  001812  C07A  F01F         	movff	_log2f$1353+2,___fladd@b+2
  4627  001816  C07B  F020         	movff	_log2f$1353+3,___fladd@b+3
  4628  00181A  EC3E  F00C         	call	___fladd	;wreg free
  4629  00181E  C01D  F082         	movff	?___fladd,_log2f$1351
  4630  001822  C01E  F083         	movff	?___fladd+1,_log2f$1351+1
  4631  001826  C01F  F084         	movff	?___fladd+2,_log2f$1351+2
  4632  00182A  C020  F085         	movff	?___fladd+3,_log2f$1351+3
  4633  00182E  C082  F01D         	movff	_log2f$1351,___fladd@b
  4634  001832  C083  F01E         	movff	_log2f$1351+1,___fladd@b+1
  4635  001836  C084  F01F         	movff	_log2f$1351+2,___fladd@b+2
  4636  00183A  C085  F020         	movff	_log2f$1351+3,___fladd@b+3
  4637  00183E  C07C  F004         	movff	log2f@k,___xxtofl@val
  4638  001842  C07D  F005         	movff	log2f@k+1,___xxtofl@val+1
  4639  001846  0E00               	movlw	0
  4640  001848  BE05               	btfsc	(___xxtofl@val+1)^0,7,c
  4641  00184A  0EFF               	movlw	-1
  4642  00184C  6E06               	movwf	(___xxtofl@val+2)^0,c
  4643  00184E  6E07               	movwf	(___xxtofl@val+3)^0,c
  4644  001850  0E01               	movlw	1
  4645  001852  EC1B  F018         	call	___xxtofl
  4646  001856  C004  F021         	movff	?___xxtofl,___fladd@a
  4647  00185A  C005  F022         	movff	?___xxtofl+1,___fladd@a+1
  4648  00185E  C006  F023         	movff	?___xxtofl+2,___fladd@a+2
  4649  001862  C007  F024         	movff	?___xxtofl+3,___fladd@a+3
  4650  001866  EC3E  F00C         	call	___fladd	;wreg free
  4651  00186A  C01D  F04E         	movff	?___fladd,?_log2f
  4652  00186E  C01E  F04F         	movff	?___fladd+1,?_log2f+1
  4653  001872  C01F  F050         	movff	?___fladd+2,?_log2f+2
  4654  001876  C020  F051         	movff	?___fladd+3,?_log2f+3
  4655  00187A                     i1l956:
  4656  00187A  0012               	return		;funcret
  4657  00187C                     __end_of_log2f:
  4658                           	callstack 0
  4659                           
  4660 ;; *************** function ___xxtofl *****************
  4661 ;; Defined at:
  4662 ;;		line 10 in file "/opt/microchip/xc8/v2.30/pic/sources/c99/common/xxtofl.c"
  4663 ;; Parameters:    Size  Location     Type
  4664 ;;  sign            1    wreg     unsigned char 
  4665 ;;  val             4    3[COMRAM] long 
  4666 ;; Auto vars:     Size  Location     Type
  4667 ;;  sign            1   11[COMRAM] unsigned char 
  4668 ;;  arg             4   13[COMRAM] unsigned long 
  4669 ;;  exp             1   12[COMRAM] unsigned char 
  4670 ;; Return value:  Size  Location     Type
  4671 ;;                  4    3[COMRAM] unsigned char 
  4672 ;; Registers used:
  4673 ;;		wreg, status,2, status,0
  4674 ;; Tracked objects:
  4675 ;;		On entry : 0/0
  4676 ;;		On exit  : 0/0
  4677 ;;		Unchanged: 0/0
  4678 ;; Data sizes:     COMRAM   BANK0   BANK1   BANK2   BANK3   BANK4   BANK5   BANK6   BANK7   BANK8   BANK9  BANK10  BANK1
      +1  BANK12  BANK13  BANK14  BANK15
  4679 ;;      Params:         4       0       0       0       0       0       0       0       0       0       0       0       
      +0       0       0       0       0
  4680 ;;      Locals:         6       0       0       0       0       0       0       0       0       0       0       0       
      +0       0       0       0       0
  4681 ;;      Temps:          4       0       0       0       0       0       0       0       0       0       0       0       
      +0       0       0       0       0
  4682 ;;      Totals:        14       0       0       0       0       0       0       0       0       0       0       0       
      +0       0       0       0       0
  4683 ;;Total ram usage:       14 bytes
  4684 ;; Hardware stack levels used:    1
  4685 ;; Hardware stack levels required when called:    3
  4686 ;; This function calls:
  4687 ;;		Nothing
  4688 ;; This function is called by:
  4689 ;;		_seven_segment
  4690 ;;		_log2f
  4691 ;; This function uses a non-reentrant model
  4692 ;;
  4693                           
  4694                           	psect	text15
  4695  003036                     __ptext15:
  4696                           	callstack 0
  4697  003036                     ___xxtofl:
  4698                           	callstack 19
  4699                           
  4700                           ;incstack = 0
  4701                           ;___xxtofl@sign stored from wreg
  4702  003036  6E0C               	movwf	___xxtofl@sign^0,c
  4703  003038  500C               	movf	___xxtofl@sign^0,w,c
  4704  00303A  B4D8               	btfsc	status,2,c
  4705  00303C  EF22  F018         	goto	i1u264_21
  4706  003040  EF24  F018         	goto	i1u264_20
  4707  003044                     i1u264_21:
  4708  003044  EF46  F018         	goto	i1l917
  4709  003048                     i1u264_20:
  4710  003048  BE07               	btfsc	(___xxtofl@val+3)^0,7,c
  4711  00304A  EF2B  F018         	goto	i1u265_20
  4712  00304E  EF29  F018         	goto	i1u265_21
  4713  003052                     i1u265_21:
  4714  003052  EF46  F018         	goto	i1l917
  4715  003056                     i1u265_20:
  4716  003056  C004  F008         	movff	___xxtofl@val,??___xxtofl
  4717  00305A  C005  F009         	movff	___xxtofl@val+1,??___xxtofl+1
  4718  00305E  C006  F00A         	movff	___xxtofl@val+2,??___xxtofl+2
  4719  003062  C007  F00B         	movff	___xxtofl@val+3,??___xxtofl+3
  4720  003066  1E08               	comf	??___xxtofl^0,f,c
  4721  003068  1E09               	comf	(??___xxtofl+1)^0,f,c
  4722  00306A  1E0A               	comf	(??___xxtofl+2)^0,f,c
  4723  00306C  1E0B               	comf	(??___xxtofl+3)^0,f,c
  4724  00306E  2A08               	incf	??___xxtofl^0,f,c
  4725  003070  0E00               	movlw	0
  4726  003072  2209               	addwfc	(??___xxtofl+1)^0,f,c
  4727  003074  220A               	addwfc	(??___xxtofl+2)^0,f,c
  4728  003076  220B               	addwfc	(??___xxtofl+3)^0,f,c
  4729  003078  C008  F00E         	movff	??___xxtofl,___xxtofl@arg
  4730  00307C  C009  F00F         	movff	??___xxtofl+1,___xxtofl@arg+1
  4731  003080  C00A  F010         	movff	??___xxtofl+2,___xxtofl@arg+2
  4732  003084  C00B  F011         	movff	??___xxtofl+3,___xxtofl@arg+3
  4733  003088  EF4E  F018         	goto	i1l2905
  4734  00308C                     i1l917:
  4735  00308C  C004  F00E         	movff	___xxtofl@val,___xxtofl@arg
  4736  003090  C005  F00F         	movff	___xxtofl@val+1,___xxtofl@arg+1
  4737  003094  C006  F010         	movff	___xxtofl@val+2,___xxtofl@arg+2
  4738  003098  C007  F011         	movff	___xxtofl@val+3,___xxtofl@arg+3
  4739  00309C                     i1l2905:
  4740  00309C  5004               	movf	___xxtofl@val^0,w,c
  4741  00309E  1005               	iorwf	(___xxtofl@val+1)^0,w,c
  4742  0030A0  1006               	iorwf	(___xxtofl@val+2)^0,w,c
  4743  0030A2  1007               	iorwf	(___xxtofl@val+3)^0,w,c
  4744  0030A4  A4D8               	btfss	status,2,c
  4745  0030A6  EF57  F018         	goto	i1u266_21
  4746  0030AA  EF59  F018         	goto	i1u266_20
  4747  0030AE                     i1u266_21:
  4748  0030AE  EF63  F018         	goto	i1l2911
  4749  0030B2                     i1u266_20:
  4750  0030B2  0E00               	movlw	0
  4751  0030B4  6E04               	movwf	?___xxtofl^0,c
  4752  0030B6  0E00               	movlw	0
  4753  0030B8  6E05               	movwf	(?___xxtofl+1)^0,c
  4754  0030BA  0E00               	movlw	0
  4755  0030BC  6E06               	movwf	(?___xxtofl+2)^0,c
  4756  0030BE  0E00               	movlw	0
  4757  0030C0  6E07               	movwf	(?___xxtofl+3)^0,c
  4758  0030C2  EFF4  F018         	goto	i1l920
  4759  0030C6                     i1l2911:
  4760  0030C6  0E96               	movlw	150
  4761  0030C8  6E0D               	movwf	___xxtofl@exp^0,c
  4762  0030CA  EF6D  F018         	goto	i1l2915
  4763  0030CE                     i1l2913:
  4764  0030CE  2A0D               	incf	___xxtofl@exp^0,f,c
  4765  0030D0  90D8               	bcf	status,0,c
  4766  0030D2  3211               	rrcf	(___xxtofl@arg+3)^0,f,c
  4767  0030D4  3210               	rrcf	(___xxtofl@arg+2)^0,f,c
  4768  0030D6  320F               	rrcf	(___xxtofl@arg+1)^0,f,c
  4769  0030D8  320E               	rrcf	___xxtofl@arg^0,f,c
  4770  0030DA                     i1l2915:
  4771  0030DA  0E00               	movlw	0
  4772  0030DC  140E               	andwf	___xxtofl@arg^0,w,c
  4773  0030DE  6E08               	movwf	??___xxtofl^0,c
  4774  0030E0  0E00               	movlw	0
  4775  0030E2  140F               	andwf	(___xxtofl@arg+1)^0,w,c
  4776  0030E4  6E09               	movwf	(??___xxtofl+1)^0,c
  4777  0030E6  0E00               	movlw	0
  4778  0030E8  1410               	andwf	(___xxtofl@arg+2)^0,w,c
  4779  0030EA  6E0A               	movwf	(??___xxtofl+2)^0,c
  4780  0030EC  0EFE               	movlw	254
  4781  0030EE  1411               	andwf	(___xxtofl@arg+3)^0,w,c
  4782  0030F0  6E0B               	movwf	(??___xxtofl+3)^0,c
  4783  0030F2  5008               	movf	??___xxtofl^0,w,c
  4784  0030F4  1009               	iorwf	(??___xxtofl+1)^0,w,c
  4785  0030F6  100A               	iorwf	(??___xxtofl+2)^0,w,c
  4786  0030F8  100B               	iorwf	(??___xxtofl+3)^0,w,c
  4787  0030FA  A4D8               	btfss	status,2,c
  4788  0030FC  EF82  F018         	goto	i1u267_21
  4789  003100  EF84  F018         	goto	i1u267_20
  4790  003104                     i1u267_21:
  4791  003104  EF67  F018         	goto	i1l2913
  4792  003108                     i1u267_20:
  4793  003108  EF92  F018         	goto	i1l924
  4794  00310C                     i1l2917:
  4795  00310C  2A0D               	incf	___xxtofl@exp^0,f,c
  4796  00310E  0E01               	movlw	1
  4797  003110  260E               	addwf	___xxtofl@arg^0,f,c
  4798  003112  0E00               	movlw	0
  4799  003114  220F               	addwfc	(___xxtofl@arg+1)^0,f,c
  4800  003116  2210               	addwfc	(___xxtofl@arg+2)^0,f,c
  4801  003118  2211               	addwfc	(___xxtofl@arg+3)^0,f,c
  4802  00311A  90D8               	bcf	status,0,c
  4803  00311C  3211               	rrcf	(___xxtofl@arg+3)^0,f,c
  4804  00311E  3210               	rrcf	(___xxtofl@arg+2)^0,f,c
  4805  003120  320F               	rrcf	(___xxtofl@arg+1)^0,f,c
  4806  003122  320E               	rrcf	___xxtofl@arg^0,f,c
  4807  003124                     i1l924:
  4808  003124  0E00               	movlw	0
  4809  003126  140E               	andwf	___xxtofl@arg^0,w,c
  4810  003128  6E08               	movwf	??___xxtofl^0,c
  4811  00312A  0E00               	movlw	0
  4812  00312C  140F               	andwf	(___xxtofl@arg+1)^0,w,c
  4813  00312E  6E09               	movwf	(??___xxtofl+1)^0,c
  4814  003130  0E00               	movlw	0
  4815  003132  1410               	andwf	(___xxtofl@arg+2)^0,w,c
  4816  003134  6E0A               	movwf	(??___xxtofl+2)^0,c
  4817  003136  0EFF               	movlw	255
  4818  003138  1411               	andwf	(___xxtofl@arg+3)^0,w,c
  4819  00313A  6E0B               	movwf	(??___xxtofl+3)^0,c
  4820  00313C  5008               	movf	??___xxtofl^0,w,c
  4821  00313E  1009               	iorwf	(??___xxtofl+1)^0,w,c
  4822  003140  100A               	iorwf	(??___xxtofl+2)^0,w,c
  4823  003142  100B               	iorwf	(??___xxtofl+3)^0,w,c
  4824  003144  A4D8               	btfss	status,2,c
  4825  003146  EFA7  F018         	goto	i1u268_21
  4826  00314A  EFA9  F018         	goto	i1u268_20
  4827  00314E                     i1u268_21:
  4828  00314E  EF86  F018         	goto	i1l2917
  4829  003152                     i1u268_20:
  4830  003152  EFB1  F018         	goto	i1l2925
  4831  003156                     i1l2923:
  4832  003156  060D               	decf	___xxtofl@exp^0,f,c
  4833  003158  90D8               	bcf	status,0,c
  4834  00315A  360E               	rlcf	___xxtofl@arg^0,f,c
  4835  00315C  360F               	rlcf	(___xxtofl@arg+1)^0,f,c
  4836  00315E  3610               	rlcf	(___xxtofl@arg+2)^0,f,c
  4837  003160  3611               	rlcf	(___xxtofl@arg+3)^0,f,c
  4838  003162                     i1l2925:
  4839  003162  BE10               	btfsc	(___xxtofl@arg+2)^0,7,c
  4840  003164  EFB6  F018         	goto	i1u269_21
  4841  003168  EFB8  F018         	goto	i1u269_20
  4842  00316C                     i1u269_21:
  4843  00316C  EFC0  F018         	goto	i1l931
  4844  003170                     i1u269_20:
  4845  003170  0E02               	movlw	2
  4846  003172  600D               	cpfslt	___xxtofl@exp^0,c
  4847  003174  EFBE  F018         	goto	i1u270_21
  4848  003178  EFC0  F018         	goto	i1u270_20
  4849  00317C                     i1u270_21:
  4850  00317C  EFAB  F018         	goto	i1l2923
  4851  003180                     i1u270_20:
  4852  003180                     i1l931:
  4853  003180  B00D               	btfsc	___xxtofl@exp^0,0,c
  4854  003182  EFC5  F018         	goto	i1u271_21
  4855  003186  EFC7  F018         	goto	i1u271_20
  4856  00318A                     i1u271_21:
  4857  00318A  EFC8  F018         	goto	i1l2931
  4858  00318E                     i1u271_20:
  4859  00318E  9E10               	bcf	(___xxtofl@arg+2)^0,7,c
  4860  003190                     i1l2931:
  4861  003190  90D8               	bcf	status,0,c
  4862  003192  320D               	rrcf	___xxtofl@exp^0,f,c
  4863  003194  C00D  F008         	movff	___xxtofl@exp,??___xxtofl
  4864  003198  6A09               	clrf	(??___xxtofl+1)^0,c
  4865  00319A  6A0A               	clrf	(??___xxtofl+2)^0,c
  4866  00319C  6A0B               	clrf	(??___xxtofl+3)^0,c
  4867  00319E  C008  F00B         	movff	??___xxtofl,??___xxtofl+3
  4868  0031A2  6A0A               	clrf	(??___xxtofl+2)^0,c
  4869  0031A4  6A09               	clrf	(??___xxtofl+1)^0,c
  4870  0031A6  6A08               	clrf	??___xxtofl^0,c
  4871  0031A8  5008               	movf	??___xxtofl^0,w,c
  4872  0031AA  120E               	iorwf	___xxtofl@arg^0,f,c
  4873  0031AC  5009               	movf	(??___xxtofl+1)^0,w,c
  4874  0031AE  120F               	iorwf	(___xxtofl@arg+1)^0,f,c
  4875  0031B0  500A               	movf	(??___xxtofl+2)^0,w,c
  4876  0031B2  1210               	iorwf	(___xxtofl@arg+2)^0,f,c
  4877  0031B4  500B               	movf	(??___xxtofl+3)^0,w,c
  4878  0031B6  1211               	iorwf	(___xxtofl@arg+3)^0,f,c
  4879  0031B8  500C               	movf	___xxtofl@sign^0,w,c
  4880  0031BA  B4D8               	btfsc	status,2,c
  4881  0031BC  EFE2  F018         	goto	i1u272_21
  4882  0031C0  EFE4  F018         	goto	i1u272_20
  4883  0031C4                     i1u272_21:
  4884  0031C4  EFEC  F018         	goto	i1l2941
  4885  0031C8                     i1u272_20:
  4886  0031C8  BE07               	btfsc	(___xxtofl@val+3)^0,7,c
  4887  0031CA  EFEB  F018         	goto	i1u273_20
  4888  0031CE  EFE9  F018         	goto	i1u273_21
  4889  0031D2                     i1u273_21:
  4890  0031D2  EFEC  F018         	goto	i1l2941
  4891  0031D6                     i1u273_20:
  4892  0031D6  8E11               	bsf	(___xxtofl@arg+3)^0,7,c
  4893  0031D8                     i1l2941:
  4894  0031D8  C00E  F004         	movff	___xxtofl@arg,?___xxtofl
  4895  0031DC  C00F  F005         	movff	___xxtofl@arg+1,?___xxtofl+1
  4896  0031E0  C010  F006         	movff	___xxtofl@arg+2,?___xxtofl+2
  4897  0031E4  C011  F007         	movff	___xxtofl@arg+3,?___xxtofl+3
  4898  0031E8                     i1l920:
  4899  0031E8  0012               	return		;funcret
  4900  0031EA                     __end_of___xxtofl:
  4901                           	callstack 0
  4902                           
  4903 ;; *************** function ___flsub *****************
  4904 ;; Defined at:
  4905 ;;		line 245 in file "/opt/microchip/xc8/v2.30/pic/sources/c99/common/sprcadd.c"
  4906 ;; Parameters:    Size  Location     Type
  4907 ;;  b               4   44[COMRAM] unsigned char 
  4908 ;;  a               4   48[COMRAM] unsigned char 
  4909 ;; Auto vars:     Size  Location     Type
  4910 ;;		None
  4911 ;; Return value:  Size  Location     Type
  4912 ;;                  4   44[COMRAM] unsigned char 
  4913 ;; Registers used:
  4914 ;;		wreg, status,2, status,0, cstack
  4915 ;; Tracked objects:
  4916 ;;		On entry : 0/0
  4917 ;;		On exit  : 0/0
  4918 ;;		Unchanged: 0/0
  4919 ;; Data sizes:     COMRAM   BANK0   BANK1   BANK2   BANK3   BANK4   BANK5   BANK6   BANK7   BANK8   BANK9  BANK10  BANK1
      +1  BANK12  BANK13  BANK14  BANK15
  4920 ;;      Params:         8       0       0       0       0       0       0       0       0       0       0       0       
      +0       0       0       0       0
  4921 ;;      Locals:         0       0       0       0       0       0       0       0       0       0       0       0       
      +0       0       0       0       0
  4922 ;;      Temps:          0       0       0       0       0       0       0       0       0       0       0       0       
      +0       0       0       0       0
  4923 ;;      Totals:         8       0       0       0       0       0       0       0       0       0       0       0       
      +0       0       0       0       0
  4924 ;;Total ram usage:        8 bytes
  4925 ;; Hardware stack levels used:    1
  4926 ;; Hardware stack levels required when called:    4
  4927 ;; This function calls:
  4928 ;;		___fladd
  4929 ;; This function is called by:
  4930 ;;		_log2f
  4931 ;; This function uses a non-reentrant model
  4932 ;;
  4933                           
  4934                           	psect	text16
  4935  0036DE                     __ptext16:
  4936                           	callstack 0
  4937  0036DE                     ___flsub:
  4938                           	callstack 18
  4939  0036DE  0E00               	movlw	0
  4940  0036E0  1A31               	xorwf	___flsub@a^0,f,c
  4941  0036E2  0E00               	movlw	0
  4942  0036E4  1A32               	xorwf	(___flsub@a+1)^0,f,c
  4943  0036E6  0E00               	movlw	0
  4944  0036E8  1A33               	xorwf	(___flsub@a+2)^0,f,c
  4945  0036EA  0E80               	movlw	128
  4946  0036EC  1A34               	xorwf	(___flsub@a+3)^0,f,c
  4947  0036EE  C02D  F01D         	movff	___flsub@b,___fladd@b
  4948  0036F2  C02E  F01E         	movff	___flsub@b+1,___fladd@b+1
  4949  0036F6  C02F  F01F         	movff	___flsub@b+2,___fladd@b+2
  4950  0036FA  C030  F020         	movff	___flsub@b+3,___fladd@b+3
  4951  0036FE  C031  F021         	movff	___flsub@a,___fladd@a
  4952  003702  C032  F022         	movff	___flsub@a+1,___fladd@a+1
  4953  003706  C033  F023         	movff	___flsub@a+2,___fladd@a+2
  4954  00370A  C034  F024         	movff	___flsub@a+3,___fladd@a+3
  4955  00370E  EC3E  F00C         	call	___fladd	;wreg free
  4956  003712  C01D  F02D         	movff	?___fladd,?___flsub
  4957  003716  C01E  F02E         	movff	?___fladd+1,?___flsub+1
  4958  00371A  C01F  F02F         	movff	?___fladd+2,?___flsub+2
  4959  00371E  C020  F030         	movff	?___fladd+3,?___flsub+3
  4960  003722  0012               	return		;funcret
  4961  003724                     __end_of___flsub:
  4962                           	callstack 0
  4963                           
  4964 ;; *************** function ___fladd *****************
  4965 ;; Defined at:
  4966 ;;		line 10 in file "/opt/microchip/xc8/v2.30/pic/sources/c99/common/sprcadd.c"
  4967 ;; Parameters:    Size  Location     Type
  4968 ;;  b               4   28[COMRAM] unsigned char 
  4969 ;;  a               4   32[COMRAM] unsigned char 
  4970 ;; Auto vars:     Size  Location     Type
  4971 ;;  grs             1   43[COMRAM] unsigned char 
  4972 ;;  bexp            1   42[COMRAM] unsigned char 
  4973 ;;  aexp            1   41[COMRAM] unsigned char 
  4974 ;;  signs           1   40[COMRAM] unsigned char 
  4975 ;; Return value:  Size  Location     Type
  4976 ;;                  4   28[COMRAM] unsigned char 
  4977 ;; Registers used:
  4978 ;;		wreg, status,2, status,0
  4979 ;; Tracked objects:
  4980 ;;		On entry : 0/0
  4981 ;;		On exit  : 0/0
  4982 ;;		Unchanged: 0/0
  4983 ;; Data sizes:     COMRAM   BANK0   BANK1   BANK2   BANK3   BANK4   BANK5   BANK6   BANK7   BANK8   BANK9  BANK10  BANK1
      +1  BANK12  BANK13  BANK14  BANK15
  4984 ;;      Params:         8       0       0       0       0       0       0       0       0       0       0       0       
      +0       0       0       0       0
  4985 ;;      Locals:         4       0       0       0       0       0       0       0       0       0       0       0       
      +0       0       0       0       0
  4986 ;;      Temps:          4       0       0       0       0       0       0       0       0       0       0       0       
      +0       0       0       0       0
  4987 ;;      Totals:        16       0       0       0       0       0       0       0       0       0       0       0       
      +0       0       0       0       0
  4988 ;;Total ram usage:       16 bytes
  4989 ;; Hardware stack levels used:    1
  4990 ;; Hardware stack levels required when called:    3
  4991 ;; This function calls:
  4992 ;;		Nothing
  4993 ;; This function is called by:
  4994 ;;		___flsub
  4995 ;;		_log2f
  4996 ;; This function uses a non-reentrant model
  4997 ;;
  4998                           
  4999                           	psect	text17
  5000  00187C                     __ptext17:
  5001                           	callstack 0
  5002  00187C                     ___fladd:
  5003                           	callstack 18
  5004  00187C  5020               	movf	(___fladd@b+3)^0,w,c
  5005  00187E  0B80               	andlw	128
  5006  001880  6E29               	movwf	___fladd@signs^0,c
  5007  001882  5020               	movf	(___fladd@b+3)^0,w,c
  5008  001884  2420               	addwf	(___fladd@b+3)^0,w,c
  5009  001886  6E2B               	movwf	___fladd@bexp^0,c
  5010  001888  AE1F               	btfss	(___fladd@b+2)^0,7,c
  5011  00188A  EF49  F00C         	goto	i1u176_21
  5012  00188E  EF4B  F00C         	goto	i1u176_20
  5013  001892                     i1u176_21:
  5014  001892  EF4C  F00C         	goto	i1l2259
  5015  001896                     i1u176_20:
  5016  001896  802B               	bsf	___fladd@bexp^0,0,c
  5017  001898                     i1l2259:
  5018  001898  502B               	movf	___fladd@bexp^0,w,c
  5019  00189A  B4D8               	btfsc	status,2,c
  5020  00189C  EF52  F00C         	goto	i1u177_21
  5021  0018A0  EF54  F00C         	goto	i1u177_20
  5022  0018A4                     i1u177_21:
  5023  0018A4  EF69  F00C         	goto	i1l2269
  5024  0018A8                     i1u177_20:
  5025  0018A8  282B               	incf	___fladd@bexp^0,w,c
  5026  0018AA  A4D8               	btfss	status,2,c
  5027  0018AC  EF5A  F00C         	goto	i1u178_21
  5028  0018B0  EF5C  F00C         	goto	i1u178_20
  5029  0018B4                     i1u178_21:
  5030  0018B4  EF64  F00C         	goto	i1l2265
  5031  0018B8                     i1u178_20:
  5032  0018B8  0E00               	movlw	0
  5033  0018BA  6E1D               	movwf	___fladd@b^0,c
  5034  0018BC  0E00               	movlw	0
  5035  0018BE  6E1E               	movwf	(___fladd@b+1)^0,c
  5036  0018C0  0E00               	movlw	0
  5037  0018C2  6E1F               	movwf	(___fladd@b+2)^0,c
  5038  0018C4  0E00               	movlw	0
  5039  0018C6  6E20               	movwf	(___fladd@b+3)^0,c
  5040  0018C8                     i1l2265:
  5041  0018C8  8E1F               	bsf	(___fladd@b+2)^0,7,c
  5042  0018CA  0E00               	movlw	0
  5043  0018CC  6E20               	movwf	(___fladd@b+3)^0,c
  5044  0018CE  EF71  F00C         	goto	i1l2271
  5045  0018D2                     i1l2269:
  5046  0018D2  0E00               	movlw	0
  5047  0018D4  6E1D               	movwf	___fladd@b^0,c
  5048  0018D6  0E00               	movlw	0
  5049  0018D8  6E1E               	movwf	(___fladd@b+1)^0,c
  5050  0018DA  0E00               	movlw	0
  5051  0018DC  6E1F               	movwf	(___fladd@b+2)^0,c
  5052  0018DE  0E00               	movlw	0
  5053  0018E0  6E20               	movwf	(___fladd@b+3)^0,c
  5054  0018E2                     i1l2271:
  5055  0018E2  5024               	movf	(___fladd@a+3)^0,w,c
  5056  0018E4  0B80               	andlw	128
  5057  0018E6  6E2A               	movwf	___fladd@aexp^0,c
  5058  0018E8  5029               	movf	___fladd@signs^0,w,c
  5059  0018EA  182A               	xorwf	___fladd@aexp^0,w,c
  5060  0018EC  B4D8               	btfsc	status,2,c
  5061  0018EE  EF7B  F00C         	goto	i1u179_21
  5062  0018F2  EF7D  F00C         	goto	i1u179_20
  5063  0018F6                     i1u179_21:
  5064  0018F6  EF7E  F00C         	goto	i1l2277
  5065  0018FA                     i1u179_20:
  5066  0018FA  8C29               	bsf	___fladd@signs^0,6,c
  5067  0018FC                     i1l2277:
  5068  0018FC  5024               	movf	(___fladd@a+3)^0,w,c
  5069  0018FE  2424               	addwf	(___fladd@a+3)^0,w,c
  5070  001900  6E2A               	movwf	___fladd@aexp^0,c
  5071  001902  AE23               	btfss	(___fladd@a+2)^0,7,c
  5072  001904  EF86  F00C         	goto	i1u180_21
  5073  001908  EF88  F00C         	goto	i1u180_20
  5074  00190C                     i1u180_21:
  5075  00190C  EF89  F00C         	goto	i1l2283
  5076  001910                     i1u180_20:
  5077  001910  802A               	bsf	___fladd@aexp^0,0,c
  5078  001912                     i1l2283:
  5079  001912  502A               	movf	___fladd@aexp^0,w,c
  5080  001914  B4D8               	btfsc	status,2,c
  5081  001916  EF8F  F00C         	goto	i1u181_21
  5082  00191A  EF91  F00C         	goto	i1u181_20
  5083  00191E                     i1u181_21:
  5084  00191E  EFA6  F00C         	goto	i1l2293
  5085  001922                     i1u181_20:
  5086  001922  282A               	incf	___fladd@aexp^0,w,c
  5087  001924  A4D8               	btfss	status,2,c
  5088  001926  EF97  F00C         	goto	i1u182_21
  5089  00192A  EF99  F00C         	goto	i1u182_20
  5090  00192E                     i1u182_21:
  5091  00192E  EFA1  F00C         	goto	i1l2289
  5092  001932                     i1u182_20:
  5093  001932  0E00               	movlw	0
  5094  001934  6E21               	movwf	___fladd@a^0,c
  5095  001936  0E00               	movlw	0
  5096  001938  6E22               	movwf	(___fladd@a+1)^0,c
  5097  00193A  0E00               	movlw	0
  5098  00193C  6E23               	movwf	(___fladd@a+2)^0,c
  5099  00193E  0E00               	movlw	0
  5100  001940  6E24               	movwf	(___fladd@a+3)^0,c
  5101  001942                     i1l2289:
  5102  001942  8E23               	bsf	(___fladd@a+2)^0,7,c
  5103  001944  0E00               	movlw	0
  5104  001946  6E24               	movwf	(___fladd@a+3)^0,c
  5105  001948  EFAE  F00C         	goto	i1l2295
  5106  00194C                     i1l2293:
  5107  00194C  0E00               	movlw	0
  5108  00194E  6E21               	movwf	___fladd@a^0,c
  5109  001950  0E00               	movlw	0
  5110  001952  6E22               	movwf	(___fladd@a+1)^0,c
  5111  001954  0E00               	movlw	0
  5112  001956  6E23               	movwf	(___fladd@a+2)^0,c
  5113  001958  0E00               	movlw	0
  5114  00195A  6E24               	movwf	(___fladd@a+3)^0,c
  5115  00195C                     i1l2295:
  5116  00195C  502B               	movf	___fladd@bexp^0,w,c
  5117  00195E  5C2A               	subwf	___fladd@aexp^0,w,c
  5118  001960  B0D8               	btfsc	status,0,c
  5119  001962  EFB5  F00C         	goto	i1u183_21
  5120  001966  EFB7  F00C         	goto	i1u183_20
  5121  00196A                     i1u183_21:
  5122  00196A  EFDE  F00C         	goto	i1l2331
  5123  00196E                     i1u183_20:
  5124  00196E  AC29               	btfss	___fladd@signs^0,6,c
  5125  001970  EFBC  F00C         	goto	i1u184_21
  5126  001974  EFBE  F00C         	goto	i1u184_20
  5127  001978                     i1u184_21:
  5128  001978  EFC0  F00C         	goto	i1l2301
  5129  00197C                     i1u184_20:
  5130  00197C  0E80               	movlw	128
  5131  00197E  1A29               	xorwf	___fladd@signs^0,f,c
  5132  001980                     i1l2301:
  5133  001980  C02B  F02C         	movff	___fladd@bexp,___fladd@grs
  5134  001984  C02A  F02B         	movff	___fladd@aexp,___fladd@bexp
  5135  001988  C02C  F02A         	movff	___fladd@grs,___fladd@aexp
  5136  00198C  C01D  F02C         	movff	___fladd@b,___fladd@grs
  5137  001990  C021  F01D         	movff	___fladd@a,___fladd@b
  5138  001994  C02C  F021         	movff	___fladd@grs,___fladd@a
  5139  001998  C01E  F02C         	movff	___fladd@b+1,___fladd@grs
  5140  00199C  C022  F01E         	movff	___fladd@a+1,___fladd@b+1
  5141  0019A0  C02C  F022         	movff	___fladd@grs,___fladd@a+1
  5142  0019A4  C01F  F02C         	movff	___fladd@b+2,___fladd@grs
  5143  0019A8  C023  F01F         	movff	___fladd@a+2,___fladd@b+2
  5144  0019AC  C02C  F023         	movff	___fladd@grs,___fladd@a+2
  5145  0019B0  C020  F02C         	movff	___fladd@b+3,___fladd@grs
  5146  0019B4  C024  F020         	movff	___fladd@a+3,___fladd@b+3
  5147  0019B8  C02C  F024         	movff	___fladd@grs,___fladd@a+3
  5148  0019BC                     i1l2331:
  5149  0019BC  0E00               	movlw	0
  5150  0019BE  6E2C               	movwf	___fladd@grs^0,c
  5151  0019C0  502B               	movf	___fladd@bexp^0,w,c
  5152  0019C2  C02A  F025         	movff	___fladd@aexp,??___fladd
  5153  0019C6  6A26               	clrf	(??___fladd+1)^0,c
  5154  0019C8  5E25               	subwf	??___fladd^0,f,c
  5155  0019CA  0E00               	movlw	0
  5156  0019CC  5A26               	subwfb	(??___fladd+1)^0,f,c
  5157  0019CE  BE26               	btfsc	(??___fladd+1)^0,7,c
  5158  0019D0  EFF3  F00C         	goto	i1u185_21
  5159  0019D4  5026               	movf	(??___fladd+1)^0,w,c
  5160  0019D6  E109               	bnz	i1u185_20
  5161  0019D8  0E1A               	movlw	26
  5162  0019DA  5C25               	subwf	??___fladd^0,w,c
  5163  0019DC  A0D8               	btfss	status,0,c
  5164  0019DE  EFF3  F00C         	goto	i1u185_21
  5165  0019E2  EFF5  F00C         	goto	i1u185_20
  5166  0019E6                     i1u185_21:
  5167  0019E6  EF2C  F00D         	goto	i1l791
  5168  0019EA                     i1u185_20:
  5169  0019EA  501D               	movf	___fladd@b^0,w,c
  5170  0019EC  101E               	iorwf	(___fladd@b+1)^0,w,c
  5171  0019EE  101F               	iorwf	(___fladd@b+2)^0,w,c
  5172  0019F0  1020               	iorwf	(___fladd@b+3)^0,w,c
  5173  0019F2  A4D8               	btfss	status,2,c
  5174  0019F4  EFFE  F00C         	goto	i1u186_21
  5175  0019F8  EF01  F00D         	goto	i1u186_20
  5176  0019FC                     i1u186_21:
  5177  0019FC  0E01               	movlw	1
  5178  0019FE  EF02  F00D         	goto	i1u187_20
  5179  001A02                     i1u186_20:
  5180  001A02  0E00               	movlw	0
  5181  001A04                     i1u187_20:
  5182  001A04  6E2C               	movwf	___fladd@grs^0,c
  5183  001A06  0E00               	movlw	0
  5184  001A08  6E1D               	movwf	___fladd@b^0,c
  5185  001A0A  0E00               	movlw	0
  5186  001A0C  6E1E               	movwf	(___fladd@b+1)^0,c
  5187  001A0E  0E00               	movlw	0
  5188  001A10  6E1F               	movwf	(___fladd@b+2)^0,c
  5189  001A12  0E00               	movlw	0
  5190  001A14  6E20               	movwf	(___fladd@b+3)^0,c
  5191  001A16  C02A  F02B         	movff	___fladd@aexp,___fladd@bexp
  5192  001A1A  EF35  F00D         	goto	i1l790
  5193  001A1E                     i1l792:
  5194  001A1E  A02C               	btfss	___fladd@grs^0,0,c
  5195  001A20  EF14  F00D         	goto	i1u188_21
  5196  001A24  EF16  F00D         	goto	i1u188_20
  5197  001A28                     i1u188_21:
  5198  001A28  EF1C  F00D         	goto	i1l2343
  5199  001A2C                     i1u188_20:
  5200  001A2C  90D8               	bcf	status,0,c
  5201  001A2E  302C               	rrcf	___fladd@grs^0,w,c
  5202  001A30  0901               	iorlw	1
  5203  001A32  6E2C               	movwf	___fladd@grs^0,c
  5204  001A34  EF1E  F00D         	goto	i1l2345
  5205  001A38                     i1l2343:
  5206  001A38  90D8               	bcf	status,0,c
  5207  001A3A  322C               	rrcf	___fladd@grs^0,f,c
  5208  001A3C                     i1l2345:
  5209  001A3C  A01D               	btfss	___fladd@b^0,0,c
  5210  001A3E  EF23  F00D         	goto	i1u189_21
  5211  001A42  EF25  F00D         	goto	i1u189_20
  5212  001A46                     i1u189_21:
  5213  001A46  EF26  F00D         	goto	i1l2349
  5214  001A4A                     i1u189_20:
  5215  001A4A  8E2C               	bsf	___fladd@grs^0,7,c
  5216  001A4C                     i1l2349:
  5217  001A4C  3420               	rlcf	(___fladd@b+3)^0,w,c
  5218  001A4E  3220               	rrcf	(___fladd@b+3)^0,f,c
  5219  001A50  321F               	rrcf	(___fladd@b+2)^0,f,c
  5220  001A52  321E               	rrcf	(___fladd@b+1)^0,f,c
  5221  001A54  321D               	rrcf	___fladd@b^0,f,c
  5222  001A56  2A2B               	incf	___fladd@bexp^0,f,c
  5223  001A58                     i1l791:
  5224  001A58  502A               	movf	___fladd@aexp^0,w,c
  5225  001A5A  5C2B               	subwf	___fladd@bexp^0,w,c
  5226  001A5C  A0D8               	btfss	status,0,c
  5227  001A5E  EF33  F00D         	goto	i1u190_21
  5228  001A62  EF35  F00D         	goto	i1u190_20
  5229  001A66                     i1u190_21:
  5230  001A66  EF0F  F00D         	goto	i1l792
  5231  001A6A                     i1u190_20:
  5232  001A6A                     i1l790:
  5233  001A6A  BC29               	btfsc	___fladd@signs^0,6,c
  5234  001A6C  EF3A  F00D         	goto	i1u191_21
  5235  001A70  EF3C  F00D         	goto	i1u191_20
  5236  001A74                     i1u191_21:
  5237  001A74  EF7C  F00D         	goto	i1l2377
  5238  001A78                     i1u191_20:
  5239  001A78  502B               	movf	___fladd@bexp^0,w,c
  5240  001A7A  A4D8               	btfss	status,2,c
  5241  001A7C  EF42  F00D         	goto	i1u192_21
  5242  001A80  EF44  F00D         	goto	i1u192_20
  5243  001A84                     i1u192_21:
  5244  001A84  EF4E  F00D         	goto	i1l2359
  5245  001A88                     i1u192_20:
  5246  001A88  0E00               	movlw	0
  5247  001A8A  6E1D               	movwf	?___fladd^0,c
  5248  001A8C  0E00               	movlw	0
  5249  001A8E  6E1E               	movwf	(?___fladd+1)^0,c
  5250  001A90  0E00               	movlw	0
  5251  001A92  6E1F               	movwf	(?___fladd+2)^0,c
  5252  001A94  0E00               	movlw	0
  5253  001A96  6E20               	movwf	(?___fladd+3)^0,c
  5254  001A98  EF9D  F00E         	goto	i1l799
  5255  001A9C                     i1l2359:
  5256  001A9C  5021               	movf	___fladd@a^0,w,c
  5257  001A9E  261D               	addwf	___fladd@b^0,f,c
  5258  001AA0  5022               	movf	(___fladd@a+1)^0,w,c
  5259  001AA2  221E               	addwfc	(___fladd@b+1)^0,f,c
  5260  001AA4  5023               	movf	(___fladd@a+2)^0,w,c
  5261  001AA6  221F               	addwfc	(___fladd@b+2)^0,f,c
  5262  001AA8  5024               	movf	(___fladd@a+3)^0,w,c
  5263  001AAA  2220               	addwfc	(___fladd@b+3)^0,f,c
  5264  001AAC  A020               	btfss	(___fladd@b+3)^0,0,c
  5265  001AAE  EF5B  F00D         	goto	i1u193_21
  5266  001AB2  EF5D  F00D         	goto	i1u193_20
  5267  001AB6                     i1u193_21:
  5268  001AB6  EF09  F00E         	goto	i1l2413
  5269  001ABA                     i1u193_20:
  5270  001ABA  A02C               	btfss	___fladd@grs^0,0,c
  5271  001ABC  EF62  F00D         	goto	i1u194_21
  5272  001AC0  EF64  F00D         	goto	i1u194_20
  5273  001AC4                     i1u194_21:
  5274  001AC4  EF6A  F00D         	goto	i1l2367
  5275  001AC8                     i1u194_20:
  5276  001AC8  90D8               	bcf	status,0,c
  5277  001ACA  302C               	rrcf	___fladd@grs^0,w,c
  5278  001ACC  0901               	iorlw	1
  5279  001ACE  6E2C               	movwf	___fladd@grs^0,c
  5280  001AD0  EF6C  F00D         	goto	i1l2369
  5281  001AD4                     i1l2367:
  5282  001AD4  90D8               	bcf	status,0,c
  5283  001AD6  322C               	rrcf	___fladd@grs^0,f,c
  5284  001AD8                     i1l2369:
  5285  001AD8  A01D               	btfss	___fladd@b^0,0,c
  5286  001ADA  EF71  F00D         	goto	i1u195_21
  5287  001ADE  EF73  F00D         	goto	i1u195_20
  5288  001AE2                     i1u195_21:
  5289  001AE2  EF74  F00D         	goto	i1l2373
  5290  001AE6                     i1u195_20:
  5291  001AE6  8E2C               	bsf	___fladd@grs^0,7,c
  5292  001AE8                     i1l2373:
  5293  001AE8  3420               	rlcf	(___fladd@b+3)^0,w,c
  5294  001AEA  3220               	rrcf	(___fladd@b+3)^0,f,c
  5295  001AEC  321F               	rrcf	(___fladd@b+2)^0,f,c
  5296  001AEE  321E               	rrcf	(___fladd@b+1)^0,f,c
  5297  001AF0  321D               	rrcf	___fladd@b^0,f,c
  5298  001AF2  2A2B               	incf	___fladd@bexp^0,f,c
  5299  001AF4  EF09  F00E         	goto	i1l2413
  5300  001AF8                     i1l2377:
  5301  001AF8  5021               	movf	___fladd@a^0,w,c
  5302  001AFA  5C1D               	subwf	___fladd@b^0,w,c
  5303  001AFC  5022               	movf	(___fladd@a+1)^0,w,c
  5304  001AFE  581E               	subwfb	(___fladd@b+1)^0,w,c
  5305  001B00  5023               	movf	(___fladd@a+2)^0,w,c
  5306  001B02  581F               	subwfb	(___fladd@b+2)^0,w,c
  5307  001B04  5020               	movf	(___fladd@b+3)^0,w,c
  5308  001B06  0A80               	xorlw	128
  5309  001B08  6E25               	movwf	??___fladd^0,c
  5310  001B0A  5024               	movf	(___fladd@a+3)^0,w,c
  5311  001B0C  0A80               	xorlw	128
  5312  001B0E  5825               	subwfb	??___fladd^0,w,c
  5313  001B10  B0D8               	btfsc	status,0,c
  5314  001B12  EF8D  F00D         	goto	i1u196_21
  5315  001B16  EF8F  F00D         	goto	i1u196_20
  5316  001B1A                     i1u196_21:
  5317  001B1A  EFBA  F00D         	goto	i1l2387
  5318  001B1E                     i1u196_20:
  5319  001B1E  501D               	movf	___fladd@b^0,w,c
  5320  001B20  5C21               	subwf	___fladd@a^0,w,c
  5321  001B22  6E25               	movwf	??___fladd^0,c
  5322  001B24  501E               	movf	(___fladd@b+1)^0,w,c
  5323  001B26  5822               	subwfb	(___fladd@a+1)^0,w,c
  5324  001B28  6E26               	movwf	(??___fladd+1)^0,c
  5325  001B2A  501F               	movf	(___fladd@b+2)^0,w,c
  5326  001B2C  5823               	subwfb	(___fladd@a+2)^0,w,c
  5327  001B2E  6E27               	movwf	(??___fladd+2)^0,c
  5328  001B30  5020               	movf	(___fladd@b+3)^0,w,c
  5329  001B32  5824               	subwfb	(___fladd@a+3)^0,w,c
  5330  001B34  6E28               	movwf	(??___fladd+3)^0,c
  5331  001B36  0EFF               	movlw	255
  5332  001B38  2425               	addwf	??___fladd^0,w,c
  5333  001B3A  6E1D               	movwf	___fladd@b^0,c
  5334  001B3C  0EFF               	movlw	255
  5335  001B3E  2026               	addwfc	(??___fladd+1)^0,w,c
  5336  001B40  6E1E               	movwf	(___fladd@b+1)^0,c
  5337  001B42  0EFF               	movlw	255
  5338  001B44  2027               	addwfc	(??___fladd+2)^0,w,c
  5339  001B46  6E1F               	movwf	(___fladd@b+2)^0,c
  5340  001B48  0EFF               	movlw	255
  5341  001B4A  2028               	addwfc	(??___fladd+3)^0,w,c
  5342  001B4C  6E20               	movwf	(___fladd@b+3)^0,c
  5343  001B4E  0E80               	movlw	128
  5344  001B50  1A29               	xorwf	___fladd@signs^0,f,c
  5345  001B52  6C2C               	negf	___fladd@grs^0,c
  5346  001B54  502C               	movf	___fladd@grs^0,w,c
  5347  001B56  A4D8               	btfss	status,2,c
  5348  001B58  EFB0  F00D         	goto	i1u197_21
  5349  001B5C  EFB2  F00D         	goto	i1u197_20
  5350  001B60                     i1u197_21:
  5351  001B60  EFC2  F00D         	goto	i1l807
  5352  001B64                     i1u197_20:
  5353  001B64  0E01               	movlw	1
  5354  001B66  261D               	addwf	___fladd@b^0,f,c
  5355  001B68  0E00               	movlw	0
  5356  001B6A  221E               	addwfc	(___fladd@b+1)^0,f,c
  5357  001B6C  221F               	addwfc	(___fladd@b+2)^0,f,c
  5358  001B6E  2220               	addwfc	(___fladd@b+3)^0,f,c
  5359  001B70  EFC2  F00D         	goto	i1l807
  5360  001B74                     i1l2387:
  5361  001B74  5021               	movf	___fladd@a^0,w,c
  5362  001B76  5E1D               	subwf	___fladd@b^0,f,c
  5363  001B78  5022               	movf	(___fladd@a+1)^0,w,c
  5364  001B7A  5A1E               	subwfb	(___fladd@b+1)^0,f,c
  5365  001B7C  5023               	movf	(___fladd@a+2)^0,w,c
  5366  001B7E  5A1F               	subwfb	(___fladd@b+2)^0,f,c
  5367  001B80  5024               	movf	(___fladd@a+3)^0,w,c
  5368  001B82  5A20               	subwfb	(___fladd@b+3)^0,f,c
  5369  001B84                     i1l807:
  5370  001B84  501D               	movf	___fladd@b^0,w,c
  5371  001B86  101E               	iorwf	(___fladd@b+1)^0,w,c
  5372  001B88  101F               	iorwf	(___fladd@b+2)^0,w,c
  5373  001B8A  1020               	iorwf	(___fladd@b+3)^0,w,c
  5374  001B8C  A4D8               	btfss	status,2,c
  5375  001B8E  EFCB  F00D         	goto	i1u198_21
  5376  001B92  EFCD  F00D         	goto	i1u198_20
  5377  001B96                     i1u198_21:
  5378  001B96  EF02  F00E         	goto	i1l2411
  5379  001B9A                     i1u198_20:
  5380  001B9A  502C               	movf	___fladd@grs^0,w,c
  5381  001B9C  A4D8               	btfss	status,2,c
  5382  001B9E  EFD3  F00D         	goto	i1u199_21
  5383  001BA2  EFD5  F00D         	goto	i1u199_20
  5384  001BA6                     i1u199_21:
  5385  001BA6  EF02  F00E         	goto	i1l2411
  5386  001BAA                     i1u199_20:
  5387  001BAA  0E00               	movlw	0
  5388  001BAC  6E1D               	movwf	?___fladd^0,c
  5389  001BAE  0E00               	movlw	0
  5390  001BB0  6E1E               	movwf	(?___fladd+1)^0,c
  5391  001BB2  0E00               	movlw	0
  5392  001BB4  6E1F               	movwf	(?___fladd+2)^0,c
  5393  001BB6  0E00               	movlw	0
  5394  001BB8  6E20               	movwf	(?___fladd+3)^0,c
  5395  001BBA  EF9D  F00E         	goto	i1l799
  5396  001BBE                     i1l2395:
  5397  001BBE  90D8               	bcf	status,0,c
  5398  001BC0  361D               	rlcf	___fladd@b^0,f,c
  5399  001BC2  361E               	rlcf	(___fladd@b+1)^0,f,c
  5400  001BC4  361F               	rlcf	(___fladd@b+2)^0,f,c
  5401  001BC6  3620               	rlcf	(___fladd@b+3)^0,f,c
  5402  001BC8  AE2C               	btfss	___fladd@grs^0,7,c
  5403  001BCA  EFE9  F00D         	goto	i1u200_21
  5404  001BCE  EFEB  F00D         	goto	i1u200_20
  5405  001BD2                     i1u200_21:
  5406  001BD2  EFEC  F00D         	goto	i1l2401
  5407  001BD6                     i1u200_20:
  5408  001BD6  801D               	bsf	___fladd@b^0,0,c
  5409  001BD8                     i1l2401:
  5410  001BD8  A02C               	btfss	___fladd@grs^0,0,c
  5411  001BDA  EFF1  F00D         	goto	i1u201_21
  5412  001BDE  EFF3  F00D         	goto	i1u201_20
  5413  001BE2                     i1u201_21:
  5414  001BE2  EFF7  F00D         	goto	i1l2405
  5415  001BE6                     i1u201_20:
  5416  001BE6  80D8               	bsf	status,0,c
  5417  001BE8  362C               	rlcf	___fladd@grs^0,f,c
  5418  001BEA  EFF9  F00D         	goto	i1l2407
  5419  001BEE                     i1l2405:
  5420  001BEE  90D8               	bcf	status,0,c
  5421  001BF0  362C               	rlcf	___fladd@grs^0,f,c
  5422  001BF2                     i1l2407:
  5423  001BF2  502B               	movf	___fladd@bexp^0,w,c
  5424  001BF4  B4D8               	btfsc	status,2,c
  5425  001BF6  EFFF  F00D         	goto	i1u202_21
  5426  001BFA  EF01  F00E         	goto	i1u202_20
  5427  001BFE                     i1u202_21:
  5428  001BFE  EF02  F00E         	goto	i1l2411
  5429  001C02                     i1u202_20:
  5430  001C02  062B               	decf	___fladd@bexp^0,f,c
  5431  001C04                     i1l2411:
  5432  001C04  AE1F               	btfss	(___fladd@b+2)^0,7,c
  5433  001C06  EF07  F00E         	goto	i1u203_21
  5434  001C0A  EF09  F00E         	goto	i1u203_20
  5435  001C0E                     i1u203_21:
  5436  001C0E  EFDF  F00D         	goto	i1l2395
  5437  001C12                     i1u203_20:
  5438  001C12                     i1l2413:
  5439  001C12  0E00               	movlw	0
  5440  001C14  6E2A               	movwf	___fladd@aexp^0,c
  5441  001C16  AE2C               	btfss	___fladd@grs^0,7,c
  5442  001C18  EF10  F00E         	goto	i1u204_21
  5443  001C1C  EF12  F00E         	goto	i1u204_20
  5444  001C20                     i1u204_21:
  5445  001C20  EF2A  F00E         	goto	i1l816
  5446  001C24                     i1u204_20:
  5447  001C24  C02C  F025         	movff	___fladd@grs,??___fladd
  5448  001C28  0E7F               	movlw	127
  5449  001C2A  1625               	andwf	??___fladd^0,f,c
  5450  001C2C  B4D8               	btfsc	status,2,c
  5451  001C2E  EF1B  F00E         	goto	i1u205_21
  5452  001C32  EF1D  F00E         	goto	i1u205_20
  5453  001C36                     i1u205_21:
  5454  001C36  EF21  F00E         	goto	i1l817
  5455  001C3A                     i1u205_20:
  5456  001C3A                     i1l2419:
  5457  001C3A  0E01               	movlw	1
  5458  001C3C  6E2A               	movwf	___fladd@aexp^0,c
  5459  001C3E  EF2A  F00E         	goto	i1l816
  5460  001C42                     i1l817:
  5461  001C42  A01D               	btfss	___fladd@b^0,0,c
  5462  001C44  EF26  F00E         	goto	i1u206_21
  5463  001C48  EF28  F00E         	goto	i1u206_20
  5464  001C4C                     i1u206_21:
  5465  001C4C  EF2A  F00E         	goto	i1l816
  5466  001C50                     i1u206_20:
  5467  001C50  EF1D  F00E         	goto	i1l2419
  5468  001C54                     i1l816:
  5469  001C54  502A               	movf	___fladd@aexp^0,w,c
  5470  001C56  B4D8               	btfsc	status,2,c
  5471  001C58  EF30  F00E         	goto	i1u207_21
  5472  001C5C  EF32  F00E         	goto	i1u207_20
  5473  001C60                     i1u207_21:
  5474  001C60  EF5D  F00E         	goto	i1l2431
  5475  001C64                     i1u207_20:
  5476  001C64  0E01               	movlw	1
  5477  001C66  261D               	addwf	___fladd@b^0,f,c
  5478  001C68  0E00               	movlw	0
  5479  001C6A  221E               	addwfc	(___fladd@b+1)^0,f,c
  5480  001C6C  221F               	addwfc	(___fladd@b+2)^0,f,c
  5481  001C6E  2220               	addwfc	(___fladd@b+3)^0,f,c
  5482  001C70  A020               	btfss	(___fladd@b+3)^0,0,c
  5483  001C72  EF3D  F00E         	goto	i1u208_21
  5484  001C76  EF3F  F00E         	goto	i1u208_20
  5485  001C7A                     i1u208_21:
  5486  001C7A  EF5D  F00E         	goto	i1l2431
  5487  001C7E                     i1u208_20:
  5488  001C7E  C01D  F025         	movff	___fladd@b,??___fladd
  5489  001C82  C01E  F026         	movff	___fladd@b+1,??___fladd+1
  5490  001C86  C01F  F027         	movff	___fladd@b+2,??___fladd+2
  5491  001C8A  C020  F028         	movff	___fladd@b+3,??___fladd+3
  5492  001C8E  3428               	rlcf	(??___fladd+3)^0,w,c
  5493  001C90  3228               	rrcf	(??___fladd+3)^0,f,c
  5494  001C92  3227               	rrcf	(??___fladd+2)^0,f,c
  5495  001C94  3226               	rrcf	(??___fladd+1)^0,f,c
  5496  001C96  3225               	rrcf	??___fladd^0,f,c
  5497  001C98  C025  F01D         	movff	??___fladd,___fladd@b
  5498  001C9C  C026  F01E         	movff	??___fladd+1,___fladd@b+1
  5499  001CA0  C027  F01F         	movff	??___fladd+2,___fladd@b+2
  5500  001CA4  C028  F020         	movff	??___fladd+3,___fladd@b+3
  5501  001CA8  282B               	incf	___fladd@bexp^0,w,c
  5502  001CAA  B4D8               	btfsc	status,2,c
  5503  001CAC  EF5A  F00E         	goto	i1u209_21
  5504  001CB0  EF5C  F00E         	goto	i1u209_20
  5505  001CB4                     i1u209_21:
  5506  001CB4  EF5D  F00E         	goto	i1l2431
  5507  001CB8                     i1u209_20:
  5508  001CB8  2A2B               	incf	___fladd@bexp^0,f,c
  5509  001CBA                     i1l2431:
  5510  001CBA  282B               	incf	___fladd@bexp^0,w,c
  5511  001CBC  B4D8               	btfsc	status,2,c
  5512  001CBE  EF63  F00E         	goto	i1u210_21
  5513  001CC2  EF65  F00E         	goto	i1u210_20
  5514  001CC6                     i1u210_21:
  5515  001CC6  EF6D  F00E         	goto	i1l2435
  5516  001CCA                     i1u210_20:
  5517  001CCA  502B               	movf	___fladd@bexp^0,w,c
  5518  001CCC  A4D8               	btfss	status,2,c
  5519  001CCE  EF6B  F00E         	goto	i1u211_21
  5520  001CD2  EF6D  F00E         	goto	i1u211_20
  5521  001CD6                     i1u211_21:
  5522  001CD6  EF7F  F00E         	goto	i1l2439
  5523  001CDA                     i1u211_20:
  5524  001CDA                     i1l2435:
  5525  001CDA  0E00               	movlw	0
  5526  001CDC  6E1D               	movwf	___fladd@b^0,c
  5527  001CDE  0E00               	movlw	0
  5528  001CE0  6E1E               	movwf	(___fladd@b+1)^0,c
  5529  001CE2  0E00               	movlw	0
  5530  001CE4  6E1F               	movwf	(___fladd@b+2)^0,c
  5531  001CE6  0E00               	movlw	0
  5532  001CE8  6E20               	movwf	(___fladd@b+3)^0,c
  5533  001CEA  502B               	movf	___fladd@bexp^0,w,c
  5534  001CEC  A4D8               	btfss	status,2,c
  5535  001CEE  EF7B  F00E         	goto	i1u212_21
  5536  001CF2  EF7D  F00E         	goto	i1u212_20
  5537  001CF6                     i1u212_21:
  5538  001CF6  EF7F  F00E         	goto	i1l2439
  5539  001CFA                     i1u212_20:
  5540  001CFA  0E00               	movlw	0
  5541  001CFC  6E29               	movwf	___fladd@signs^0,c
  5542  001CFE                     i1l2439:
  5543  001CFE  A02B               	btfss	___fladd@bexp^0,0,c
  5544  001D00  EF84  F00E         	goto	i1u213_21
  5545  001D04  EF86  F00E         	goto	i1u213_20
  5546  001D08                     i1u213_21:
  5547  001D08  EF89  F00E         	goto	i1l2443
  5548  001D0C                     i1u213_20:
  5549  001D0C  8E1F               	bsf	(___fladd@b+2)^0,7,c
  5550  001D0E  EF8A  F00E         	goto	i1l2445
  5551  001D12                     i1l2443:
  5552  001D12  9E1F               	bcf	(___fladd@b+2)^0,7,c
  5553  001D14                     i1l2445:
  5554  001D14  90D8               	bcf	status,0,c
  5555  001D16  302B               	rrcf	___fladd@bexp^0,w,c
  5556  001D18  6E20               	movwf	(___fladd@b+3)^0,c
  5557  001D1A  AE29               	btfss	___fladd@signs^0,7,c
  5558  001D1C  EF92  F00E         	goto	i1u214_21
  5559  001D20  EF94  F00E         	goto	i1u214_20
  5560  001D24                     i1u214_21:
  5561  001D24  EF95  F00E         	goto	i1l2451
  5562  001D28                     i1u214_20:
  5563  001D28  8E20               	bsf	(___fladd@b+3)^0,7,c
  5564  001D2A                     i1l2451:
  5565  001D2A  C01D  F01D         	movff	___fladd@b,?___fladd
  5566  001D2E  C01E  F01E         	movff	___fladd@b+1,?___fladd+1
  5567  001D32  C01F  F01F         	movff	___fladd@b+2,?___fladd+2
  5568  001D36  C020  F020         	movff	___fladd@b+3,?___fladd+3
  5569  001D3A                     i1l799:
  5570  001D3A  0012               	return		;funcret
  5571  001D3C                     __end_of___fladd:
  5572                           	callstack 0
  5573                           
  5574 ;; *************** function ___flmul *****************
  5575 ;; Defined at:
  5576 ;;		line 8 in file "/opt/microchip/xc8/v2.30/pic/sources/c99/common/sprcmul.c"
  5577 ;; Parameters:    Size  Location     Type
  5578 ;;  b               4    3[COMRAM] unsigned char 
  5579 ;;  a               4    7[COMRAM] unsigned char 
  5580 ;; Auto vars:     Size  Location     Type
  5581 ;;  prod            4   22[COMRAM] struct .
  5582 ;;  grs             4   16[COMRAM] unsigned long 
  5583 ;;  temp            2   26[COMRAM] struct .
  5584 ;;  bexp            1   21[COMRAM] unsigned char 
  5585 ;;  aexp            1   20[COMRAM] unsigned char 
  5586 ;;  sign            1   15[COMRAM] unsigned char 
  5587 ;; Return value:  Size  Location     Type
  5588 ;;                  4    3[COMRAM] unsigned char 
  5589 ;; Registers used:
  5590 ;;		wreg, status,2, status,0, prodl, prodh
  5591 ;; Tracked objects:
  5592 ;;		On entry : 0/0
  5593 ;;		On exit  : 0/0
  5594 ;;		Unchanged: 0/0
  5595 ;; Data sizes:     COMRAM   BANK0   BANK1   BANK2   BANK3   BANK4   BANK5   BANK6   BANK7   BANK8   BANK9  BANK10  BANK1
      +1  BANK12  BANK13  BANK14  BANK15
  5596 ;;      Params:         8       0       0       0       0       0       0       0       0       0       0       0       
      +0       0       0       0       0
  5597 ;;      Locals:        13       0       0       0       0       0       0       0       0       0       0       0       
      +0       0       0       0       0
  5598 ;;      Temps:          4       0       0       0       0       0       0       0       0       0       0       0       
      +0       0       0       0       0
  5599 ;;      Totals:        25       0       0       0       0       0       0       0       0       0       0       0       
      +0       0       0       0       0
  5600 ;;Total ram usage:       25 bytes
  5601 ;; Hardware stack levels used:    1
  5602 ;; Hardware stack levels required when called:    3
  5603 ;; This function calls:
  5604 ;;		Nothing
  5605 ;; This function is called by:
  5606 ;;		_log2f
  5607 ;; This function uses a non-reentrant model
  5608 ;;
  5609                           
  5610                           	psect	text18
  5611  001D3C                     __ptext18:
  5612                           	callstack 0
  5613  001D3C                     ___flmul:
  5614                           	callstack 19
  5615  001D3C  5007               	movf	(___flmul@b+3)^0,w,c
  5616  001D3E  0B80               	andlw	128
  5617  001D40  6E10               	movwf	___flmul@sign^0,c
  5618  001D42  5007               	movf	(___flmul@b+3)^0,w,c
  5619  001D44  2407               	addwf	(___flmul@b+3)^0,w,c
  5620  001D46  6E16               	movwf	___flmul@bexp^0,c
  5621  001D48  AE06               	btfss	(___flmul@b+2)^0,7,c
  5622  001D4A  EFA9  F00E         	goto	i1u239_21
  5623  001D4E  EFAB  F00E         	goto	i1u239_20
  5624  001D52                     i1u239_21:
  5625  001D52  EFAC  F00E         	goto	i1l2725
  5626  001D56                     i1u239_20:
  5627  001D56  8016               	bsf	___flmul@bexp^0,0,c
  5628  001D58                     i1l2725:
  5629  001D58  5016               	movf	___flmul@bexp^0,w,c
  5630  001D5A  B4D8               	btfsc	status,2,c
  5631  001D5C  EFB2  F00E         	goto	i1u240_21
  5632  001D60  EFB4  F00E         	goto	i1u240_20
  5633  001D64                     i1u240_21:
  5634  001D64  EFC7  F00E         	goto	i1l2733
  5635  001D68                     i1u240_20:
  5636  001D68  2816               	incf	___flmul@bexp^0,w,c
  5637  001D6A  A4D8               	btfss	status,2,c
  5638  001D6C  EFBA  F00E         	goto	i1u241_21
  5639  001D70  EFBC  F00E         	goto	i1u241_20
  5640  001D74                     i1u241_21:
  5641  001D74  EFC4  F00E         	goto	i1l2731
  5642  001D78                     i1u241_20:
  5643  001D78  0E00               	movlw	0
  5644  001D7A  6E04               	movwf	___flmul@b^0,c
  5645  001D7C  0E00               	movlw	0
  5646  001D7E  6E05               	movwf	(___flmul@b+1)^0,c
  5647  001D80  0E00               	movlw	0
  5648  001D82  6E06               	movwf	(___flmul@b+2)^0,c
  5649  001D84  0E00               	movlw	0
  5650  001D86  6E07               	movwf	(___flmul@b+3)^0,c
  5651  001D88                     i1l2731:
  5652  001D88  8E06               	bsf	(___flmul@b+2)^0,7,c
  5653  001D8A  EFCF  F00E         	goto	i1l2735
  5654  001D8E                     i1l2733:
  5655  001D8E  0E00               	movlw	0
  5656  001D90  6E04               	movwf	___flmul@b^0,c
  5657  001D92  0E00               	movlw	0
  5658  001D94  6E05               	movwf	(___flmul@b+1)^0,c
  5659  001D96  0E00               	movlw	0
  5660  001D98  6E06               	movwf	(___flmul@b+2)^0,c
  5661  001D9A  0E00               	movlw	0
  5662  001D9C  6E07               	movwf	(___flmul@b+3)^0,c
  5663  001D9E                     i1l2735:
  5664  001D9E  500B               	movf	(___flmul@a+3)^0,w,c
  5665  001DA0  0B80               	andlw	128
  5666  001DA2  1A10               	xorwf	___flmul@sign^0,f,c
  5667  001DA4  500B               	movf	(___flmul@a+3)^0,w,c
  5668  001DA6  240B               	addwf	(___flmul@a+3)^0,w,c
  5669  001DA8  6E15               	movwf	___flmul@aexp^0,c
  5670  001DAA  AE0A               	btfss	(___flmul@a+2)^0,7,c
  5671  001DAC  EFDA  F00E         	goto	i1u242_21
  5672  001DB0  EFDC  F00E         	goto	i1u242_20
  5673  001DB4                     i1u242_21:
  5674  001DB4  EFDD  F00E         	goto	i1l2743
  5675  001DB8                     i1u242_20:
  5676  001DB8  8015               	bsf	___flmul@aexp^0,0,c
  5677  001DBA                     i1l2743:
  5678  001DBA  5015               	movf	___flmul@aexp^0,w,c
  5679  001DBC  B4D8               	btfsc	status,2,c
  5680  001DBE  EFE3  F00E         	goto	i1u243_21
  5681  001DC2  EFE5  F00E         	goto	i1u243_20
  5682  001DC6                     i1u243_21:
  5683  001DC6  EFF8  F00E         	goto	i1l2751
  5684  001DCA                     i1u243_20:
  5685  001DCA  2815               	incf	___flmul@aexp^0,w,c
  5686  001DCC  A4D8               	btfss	status,2,c
  5687  001DCE  EFEB  F00E         	goto	i1u244_21
  5688  001DD2  EFED  F00E         	goto	i1u244_20
  5689  001DD6                     i1u244_21:
  5690  001DD6  EFF5  F00E         	goto	i1l2749
  5691  001DDA                     i1u244_20:
  5692  001DDA  0E00               	movlw	0
  5693  001DDC  6E08               	movwf	___flmul@a^0,c
  5694  001DDE  0E00               	movlw	0
  5695  001DE0  6E09               	movwf	(___flmul@a+1)^0,c
  5696  001DE2  0E00               	movlw	0
  5697  001DE4  6E0A               	movwf	(___flmul@a+2)^0,c
  5698  001DE6  0E00               	movlw	0
  5699  001DE8  6E0B               	movwf	(___flmul@a+3)^0,c
  5700  001DEA                     i1l2749:
  5701  001DEA  8E0A               	bsf	(___flmul@a+2)^0,7,c
  5702  001DEC  EF00  F00F         	goto	i1l876
  5703  001DF0                     i1l2751:
  5704  001DF0  0E00               	movlw	0
  5705  001DF2  6E08               	movwf	___flmul@a^0,c
  5706  001DF4  0E00               	movlw	0
  5707  001DF6  6E09               	movwf	(___flmul@a+1)^0,c
  5708  001DF8  0E00               	movlw	0
  5709  001DFA  6E0A               	movwf	(___flmul@a+2)^0,c
  5710  001DFC  0E00               	movlw	0
  5711  001DFE  6E0B               	movwf	(___flmul@a+3)^0,c
  5712  001E00                     i1l876:
  5713  001E00  5015               	movf	___flmul@aexp^0,w,c
  5714  001E02  B4D8               	btfsc	status,2,c
  5715  001E04  EF06  F00F         	goto	i1u245_21
  5716  001E08  EF08  F00F         	goto	i1u245_20
  5717  001E0C                     i1u245_21:
  5718  001E0C  EF10  F00F         	goto	i1l2755
  5719  001E10                     i1u245_20:
  5720  001E10  5016               	movf	___flmul@bexp^0,w,c
  5721  001E12  A4D8               	btfss	status,2,c
  5722  001E14  EF0E  F00F         	goto	i1u246_21
  5723  001E18  EF10  F00F         	goto	i1u246_20
  5724  001E1C                     i1u246_21:
  5725  001E1C  EF1A  F00F         	goto	i1l2759
  5726  001E20                     i1u246_20:
  5727  001E20                     i1l2755:
  5728  001E20  0E00               	movlw	0
  5729  001E22  6E04               	movwf	?___flmul^0,c
  5730  001E24  0E00               	movlw	0
  5731  001E26  6E05               	movwf	(?___flmul+1)^0,c
  5732  001E28  0E00               	movlw	0
  5733  001E2A  6E06               	movwf	(?___flmul+2)^0,c
  5734  001E2C  0E00               	movlw	0
  5735  001E2E  6E07               	movwf	(?___flmul+3)^0,c
  5736  001E30  EFB2  F010         	goto	i1l880
  5737  001E34                     i1l2759:
  5738  001E34  500A               	movf	(___flmul@a+2)^0,w,c
  5739  001E36  0204               	mulwf	___flmul@b^0,c
  5740  001E38  CFF3 F01B          	movff	prodl,___flmul@temp
  5741  001E3C  CFF4 F01C          	movff	prodh,___flmul@temp+1
  5742  001E40  501B               	movf	___flmul@temp^0,w,c
  5743  001E42  6E11               	movwf	___flmul@grs^0,c
  5744  001E44  6A12               	clrf	(___flmul@grs+1)^0,c
  5745  001E46  6A13               	clrf	(___flmul@grs+2)^0,c
  5746  001E48  6A14               	clrf	(___flmul@grs+3)^0,c
  5747  001E4A  501C               	movf	(___flmul@temp+1)^0,w,c
  5748  001E4C  6E17               	movwf	___flmul@prod^0,c
  5749  001E4E  6A18               	clrf	(___flmul@prod+1)^0,c
  5750  001E50  6A19               	clrf	(___flmul@prod+2)^0,c
  5751  001E52  6A1A               	clrf	(___flmul@prod+3)^0,c
  5752  001E54  5009               	movf	(___flmul@a+1)^0,w,c
  5753  001E56  0205               	mulwf	(___flmul@b+1)^0,c
  5754  001E58  CFF3 F01B          	movff	prodl,___flmul@temp
  5755  001E5C  CFF4 F01C          	movff	prodh,___flmul@temp+1
  5756  001E60  501B               	movf	___flmul@temp^0,w,c
  5757  001E62  2611               	addwf	___flmul@grs^0,f,c
  5758  001E64  0E00               	movlw	0
  5759  001E66  2212               	addwfc	(___flmul@grs+1)^0,f,c
  5760  001E68  2213               	addwfc	(___flmul@grs+2)^0,f,c
  5761  001E6A  2214               	addwfc	(___flmul@grs+3)^0,f,c
  5762  001E6C  501C               	movf	(___flmul@temp+1)^0,w,c
  5763  001E6E  2617               	addwf	___flmul@prod^0,f,c
  5764  001E70  0E00               	movlw	0
  5765  001E72  2218               	addwfc	(___flmul@prod+1)^0,f,c
  5766  001E74  2219               	addwfc	(___flmul@prod+2)^0,f,c
  5767  001E76  221A               	addwfc	(___flmul@prod+3)^0,f,c
  5768  001E78  5008               	movf	___flmul@a^0,w,c
  5769  001E7A  0206               	mulwf	(___flmul@b+2)^0,c
  5770  001E7C  CFF3 F01B          	movff	prodl,___flmul@temp
  5771  001E80  CFF4 F01C          	movff	prodh,___flmul@temp+1
  5772  001E84  501B               	movf	___flmul@temp^0,w,c
  5773  001E86  2611               	addwf	___flmul@grs^0,f,c
  5774  001E88  0E00               	movlw	0
  5775  001E8A  2212               	addwfc	(___flmul@grs+1)^0,f,c
  5776  001E8C  2213               	addwfc	(___flmul@grs+2)^0,f,c
  5777  001E8E  2214               	addwfc	(___flmul@grs+3)^0,f,c
  5778  001E90  501C               	movf	(___flmul@temp+1)^0,w,c
  5779  001E92  2617               	addwf	___flmul@prod^0,f,c
  5780  001E94  0E00               	movlw	0
  5781  001E96  2218               	addwfc	(___flmul@prod+1)^0,f,c
  5782  001E98  2219               	addwfc	(___flmul@prod+2)^0,f,c
  5783  001E9A  221A               	addwfc	(___flmul@prod+3)^0,f,c
  5784  001E9C  C013  F014         	movff	___flmul@grs+2,___flmul@grs+3
  5785  001EA0  C012  F013         	movff	___flmul@grs+1,___flmul@grs+2
  5786  001EA4  C011  F012         	movff	___flmul@grs,___flmul@grs+1
  5787  001EA8  6A11               	clrf	___flmul@grs^0,c
  5788  001EAA  5008               	movf	___flmul@a^0,w,c
  5789  001EAC  0205               	mulwf	(___flmul@b+1)^0,c
  5790  001EAE  CFF3 F01B          	movff	prodl,___flmul@temp
  5791  001EB2  CFF4 F01C          	movff	prodh,___flmul@temp+1
  5792  001EB6  501B               	movf	___flmul@temp^0,w,c
  5793  001EB8  2611               	addwf	___flmul@grs^0,f,c
  5794  001EBA  501C               	movf	(___flmul@temp+1)^0,w,c
  5795  001EBC  2212               	addwfc	(___flmul@grs+1)^0,f,c
  5796  001EBE  0E00               	movlw	0
  5797  001EC0  2213               	addwfc	(___flmul@grs+2)^0,f,c
  5798  001EC2  0E00               	movlw	0
  5799  001EC4  2214               	addwfc	(___flmul@grs+3)^0,f,c
  5800  001EC6  5009               	movf	(___flmul@a+1)^0,w,c
  5801  001EC8  0204               	mulwf	___flmul@b^0,c
  5802  001ECA  CFF3 F01B          	movff	prodl,___flmul@temp
  5803  001ECE  CFF4 F01C          	movff	prodh,___flmul@temp+1
  5804  001ED2  501B               	movf	___flmul@temp^0,w,c
  5805  001ED4  2611               	addwf	___flmul@grs^0,f,c
  5806  001ED6  501C               	movf	(___flmul@temp+1)^0,w,c
  5807  001ED8  2212               	addwfc	(___flmul@grs+1)^0,f,c
  5808  001EDA  0E00               	movlw	0
  5809  001EDC  2213               	addwfc	(___flmul@grs+2)^0,f,c
  5810  001EDE  0E00               	movlw	0
  5811  001EE0  2214               	addwfc	(___flmul@grs+3)^0,f,c
  5812  001EE2  C013  F014         	movff	___flmul@grs+2,___flmul@grs+3
  5813  001EE6  C012  F013         	movff	___flmul@grs+1,___flmul@grs+2
  5814  001EEA  C011  F012         	movff	___flmul@grs,___flmul@grs+1
  5815  001EEE  6A11               	clrf	___flmul@grs^0,c
  5816  001EF0  5008               	movf	___flmul@a^0,w,c
  5817  001EF2  0204               	mulwf	___flmul@b^0,c
  5818  001EF4  CFF3 F01B          	movff	prodl,___flmul@temp
  5819  001EF8  CFF4 F01C          	movff	prodh,___flmul@temp+1
  5820  001EFC  501B               	movf	___flmul@temp^0,w,c
  5821  001EFE  2611               	addwf	___flmul@grs^0,f,c
  5822  001F00  501C               	movf	(___flmul@temp+1)^0,w,c
  5823  001F02  2212               	addwfc	(___flmul@grs+1)^0,f,c
  5824  001F04  0E00               	movlw	0
  5825  001F06  2213               	addwfc	(___flmul@grs+2)^0,f,c
  5826  001F08  0E00               	movlw	0
  5827  001F0A  2214               	addwfc	(___flmul@grs+3)^0,f,c
  5828  001F0C  500A               	movf	(___flmul@a+2)^0,w,c
  5829  001F0E  0205               	mulwf	(___flmul@b+1)^0,c
  5830  001F10  CFF3 F01B          	movff	prodl,___flmul@temp
  5831  001F14  CFF4 F01C          	movff	prodh,___flmul@temp+1
  5832  001F18  501B               	movf	___flmul@temp^0,w,c
  5833  001F1A  2617               	addwf	___flmul@prod^0,f,c
  5834  001F1C  501C               	movf	(___flmul@temp+1)^0,w,c
  5835  001F1E  2218               	addwfc	(___flmul@prod+1)^0,f,c
  5836  001F20  0E00               	movlw	0
  5837  001F22  2219               	addwfc	(___flmul@prod+2)^0,f,c
  5838  001F24  0E00               	movlw	0
  5839  001F26  221A               	addwfc	(___flmul@prod+3)^0,f,c
  5840  001F28  5009               	movf	(___flmul@a+1)^0,w,c
  5841  001F2A  0206               	mulwf	(___flmul@b+2)^0,c
  5842  001F2C  CFF3 F01B          	movff	prodl,___flmul@temp
  5843  001F30  CFF4 F01C          	movff	prodh,___flmul@temp+1
  5844  001F34  501B               	movf	___flmul@temp^0,w,c
  5845  001F36  2617               	addwf	___flmul@prod^0,f,c
  5846  001F38  501C               	movf	(___flmul@temp+1)^0,w,c
  5847  001F3A  2218               	addwfc	(___flmul@prod+1)^0,f,c
  5848  001F3C  0E00               	movlw	0
  5849  001F3E  2219               	addwfc	(___flmul@prod+2)^0,f,c
  5850  001F40  0E00               	movlw	0
  5851  001F42  221A               	addwfc	(___flmul@prod+3)^0,f,c
  5852  001F44  500A               	movf	(___flmul@a+2)^0,w,c
  5853  001F46  0206               	mulwf	(___flmul@b+2)^0,c
  5854  001F48  CFF3 F01B          	movff	prodl,___flmul@temp
  5855  001F4C  CFF4 F01C          	movff	prodh,___flmul@temp+1
  5856  001F50  501B               	movf	___flmul@temp^0,w,c
  5857  001F52  6E0C               	movwf	??___flmul^0,c
  5858  001F54  501C               	movf	(___flmul@temp+1)^0,w,c
  5859  001F56  6E0D               	movwf	(??___flmul+1)^0,c
  5860  001F58  6A0E               	clrf	(??___flmul+2)^0,c
  5861  001F5A  6A0F               	clrf	(??___flmul+3)^0,c
  5862  001F5C  C00E  F00F         	movff	??___flmul+2,??___flmul+3
  5863  001F60  C00D  F00E         	movff	??___flmul+1,??___flmul+2
  5864  001F64  C00C  F00D         	movff	??___flmul,??___flmul+1
  5865  001F68  6A0C               	clrf	??___flmul^0,c
  5866  001F6A  500C               	movf	??___flmul^0,w,c
  5867  001F6C  2617               	addwf	___flmul@prod^0,f,c
  5868  001F6E  500D               	movf	(??___flmul+1)^0,w,c
  5869  001F70  2218               	addwfc	(___flmul@prod+1)^0,f,c
  5870  001F72  500E               	movf	(??___flmul+2)^0,w,c
  5871  001F74  2219               	addwfc	(___flmul@prod+2)^0,f,c
  5872  001F76  500F               	movf	(??___flmul+3)^0,w,c
  5873  001F78  221A               	addwfc	(___flmul@prod+3)^0,f,c
  5874  001F7A  C011  F00C         	movff	___flmul@grs,??___flmul
  5875  001F7E  C012  F00D         	movff	___flmul@grs+1,??___flmul+1
  5876  001F82  C013  F00E         	movff	___flmul@grs+2,??___flmul+2
  5877  001F86  C014  F00F         	movff	___flmul@grs+3,??___flmul+3
  5878  001F8A  0E19               	movlw	25
  5879  001F8C  EFCD  F00F         	goto	i1u247_20
  5880  001F90                     i1u247_25:
  5881  001F90  90D8               	bcf	status,0,c
  5882  001F92  320F               	rrcf	(??___flmul+3)^0,f,c
  5883  001F94  320E               	rrcf	(??___flmul+2)^0,f,c
  5884  001F96  320D               	rrcf	(??___flmul+1)^0,f,c
  5885  001F98  320C               	rrcf	??___flmul^0,f,c
  5886  001F9A                     i1u247_20:
  5887  001F9A  2EE8               	decfsz	wreg,f,c
  5888  001F9C  EFC8  F00F         	goto	i1u247_25
  5889  001FA0  500C               	movf	??___flmul^0,w,c
  5890  001FA2  2617               	addwf	___flmul@prod^0,f,c
  5891  001FA4  500D               	movf	(??___flmul+1)^0,w,c
  5892  001FA6  2218               	addwfc	(___flmul@prod+1)^0,f,c
  5893  001FA8  500E               	movf	(??___flmul+2)^0,w,c
  5894  001FAA  2219               	addwfc	(___flmul@prod+2)^0,f,c
  5895  001FAC  500F               	movf	(??___flmul+3)^0,w,c
  5896  001FAE  221A               	addwfc	(___flmul@prod+3)^0,f,c
  5897  001FB0  C013  F014         	movff	___flmul@grs+2,___flmul@grs+3
  5898  001FB4  C012  F013         	movff	___flmul@grs+1,___flmul@grs+2
  5899  001FB8  C011  F012         	movff	___flmul@grs,___flmul@grs+1
  5900  001FBC  6A11               	clrf	___flmul@grs^0,c
  5901  001FBE  5015               	movf	___flmul@aexp^0,w,c
  5902  001FC0  C016  F00C         	movff	___flmul@bexp,??___flmul
  5903  001FC4  6A0D               	clrf	(??___flmul+1)^0,c
  5904  001FC6  260C               	addwf	??___flmul^0,f,c
  5905  001FC8  0E00               	movlw	0
  5906  001FCA  220D               	addwfc	(??___flmul+1)^0,f,c
  5907  001FCC  0E82               	movlw	130
  5908  001FCE  240C               	addwf	??___flmul^0,w,c
  5909  001FD0  6E1B               	movwf	___flmul@temp^0,c
  5910  001FD2  0EFF               	movlw	255
  5911  001FD4  200D               	addwfc	(??___flmul+1)^0,w,c
  5912  001FD6  6E1C               	movwf	(___flmul@temp+1)^0,c
  5913  001FD8  EF03  F010         	goto	i1l2807
  5914  001FDC                     i1l2801:
  5915  001FDC  90D8               	bcf	status,0,c
  5916  001FDE  3617               	rlcf	___flmul@prod^0,f,c
  5917  001FE0  3618               	rlcf	(___flmul@prod+1)^0,f,c
  5918  001FE2  3619               	rlcf	(___flmul@prod+2)^0,f,c
  5919  001FE4  361A               	rlcf	(___flmul@prod+3)^0,f,c
  5920  001FE6  AE14               	btfss	(___flmul@grs+3)^0,7,c
  5921  001FE8  EFF8  F00F         	goto	i1u248_21
  5922  001FEC  EFFA  F00F         	goto	i1u248_20
  5923  001FF0                     i1u248_21:
  5924  001FF0  EFFB  F00F         	goto	i1l883
  5925  001FF4                     i1u248_20:
  5926  001FF4  8017               	bsf	___flmul@prod^0,0,c
  5927  001FF6                     i1l883:
  5928  001FF6  90D8               	bcf	status,0,c
  5929  001FF8  3611               	rlcf	___flmul@grs^0,f,c
  5930  001FFA  3612               	rlcf	(___flmul@grs+1)^0,f,c
  5931  001FFC  3613               	rlcf	(___flmul@grs+2)^0,f,c
  5932  001FFE  3614               	rlcf	(___flmul@grs+3)^0,f,c
  5933  002000  061B               	decf	___flmul@temp^0,f,c
  5934  002002  A0D8               	btfss	status,0,c
  5935  002004  061C               	decf	(___flmul@temp+1)^0,f,c
  5936  002006                     i1l2807:
  5937  002006  AE19               	btfss	(___flmul@prod+2)^0,7,c
  5938  002008  EF08  F010         	goto	i1u249_21
  5939  00200C  EF0A  F010         	goto	i1u249_20
  5940  002010                     i1u249_21:
  5941  002010  EFEE  F00F         	goto	i1l2801
  5942  002014                     i1u249_20:
  5943  002014  0E00               	movlw	0
  5944  002016  6E15               	movwf	___flmul@aexp^0,c
  5945  002018  AE14               	btfss	(___flmul@grs+3)^0,7,c
  5946  00201A  EF11  F010         	goto	i1u250_21
  5947  00201E  EF13  F010         	goto	i1u250_20
  5948  002022                     i1u250_21:
  5949  002022  EF37  F010         	goto	i1l885
  5950  002026                     i1u250_20:
  5951  002026  0EFF               	movlw	255
  5952  002028  1411               	andwf	___flmul@grs^0,w,c
  5953  00202A  6E0C               	movwf	??___flmul^0,c
  5954  00202C  0EFF               	movlw	255
  5955  00202E  1412               	andwf	(___flmul@grs+1)^0,w,c
  5956  002030  6E0D               	movwf	(??___flmul+1)^0,c
  5957  002032  0EFF               	movlw	255
  5958  002034  1413               	andwf	(___flmul@grs+2)^0,w,c
  5959  002036  6E0E               	movwf	(??___flmul+2)^0,c
  5960  002038  0E7F               	movlw	127
  5961  00203A  1414               	andwf	(___flmul@grs+3)^0,w,c
  5962  00203C  6E0F               	movwf	(??___flmul+3)^0,c
  5963  00203E  500C               	movf	??___flmul^0,w,c
  5964  002040  100D               	iorwf	(??___flmul+1)^0,w,c
  5965  002042  100E               	iorwf	(??___flmul+2)^0,w,c
  5966  002044  100F               	iorwf	(??___flmul+3)^0,w,c
  5967  002046  B4D8               	btfsc	status,2,c
  5968  002048  EF28  F010         	goto	i1u251_21
  5969  00204C  EF2A  F010         	goto	i1u251_20
  5970  002050                     i1u251_21:
  5971  002050  EF2E  F010         	goto	i1l886
  5972  002054                     i1u251_20:
  5973  002054                     i1l2815:
  5974  002054  0E01               	movlw	1
  5975  002056  6E15               	movwf	___flmul@aexp^0,c
  5976  002058  EF37  F010         	goto	i1l885
  5977  00205C                     i1l886:
  5978  00205C  A017               	btfss	___flmul@prod^0,0,c
  5979  00205E  EF33  F010         	goto	i1u252_21
  5980  002062  EF35  F010         	goto	i1u252_20
  5981  002066                     i1u252_21:
  5982  002066  EF37  F010         	goto	i1l885
  5983  00206A                     i1u252_20:
  5984  00206A  EF2A  F010         	goto	i1l2815
  5985  00206E                     i1l885:
  5986  00206E  5015               	movf	___flmul@aexp^0,w,c
  5987  002070  B4D8               	btfsc	status,2,c
  5988  002072  EF3D  F010         	goto	i1u253_21
  5989  002076  EF3F  F010         	goto	i1u253_20
  5990  00207A                     i1u253_21:
  5991  00207A  EF63  F010         	goto	i1l2827
  5992  00207E                     i1u253_20:
  5993  00207E  0E01               	movlw	1
  5994  002080  2617               	addwf	___flmul@prod^0,f,c
  5995  002082  0E00               	movlw	0
  5996  002084  2218               	addwfc	(___flmul@prod+1)^0,f,c
  5997  002086  2219               	addwfc	(___flmul@prod+2)^0,f,c
  5998  002088  221A               	addwfc	(___flmul@prod+3)^0,f,c
  5999  00208A  A01A               	btfss	(___flmul@prod+3)^0,0,c
  6000  00208C  EF4A  F010         	goto	i1u254_21
  6001  002090  EF4C  F010         	goto	i1u254_20
  6002  002094                     i1u254_21:
  6003  002094  EF63  F010         	goto	i1l2827
  6004  002098                     i1u254_20:
  6005  002098  C017  F00C         	movff	___flmul@prod,??___flmul
  6006  00209C  C018  F00D         	movff	___flmul@prod+1,??___flmul+1
  6007  0020A0  C019  F00E         	movff	___flmul@prod+2,??___flmul+2
  6008  0020A4  C01A  F00F         	movff	___flmul@prod+3,??___flmul+3
  6009  0020A8  340F               	rlcf	(??___flmul+3)^0,w,c
  6010  0020AA  320F               	rrcf	(??___flmul+3)^0,f,c
  6011  0020AC  320E               	rrcf	(??___flmul+2)^0,f,c
  6012  0020AE  320D               	rrcf	(??___flmul+1)^0,f,c
  6013  0020B0  320C               	rrcf	??___flmul^0,f,c
  6014  0020B2  C00C  F017         	movff	??___flmul,___flmul@prod
  6015  0020B6  C00D  F018         	movff	??___flmul+1,___flmul@prod+1
  6016  0020BA  C00E  F019         	movff	??___flmul+2,___flmul@prod+2
  6017  0020BE  C00F  F01A         	movff	??___flmul+3,___flmul@prod+3
  6018  0020C2  4A1B               	infsnz	___flmul@temp^0,f,c
  6019  0020C4  2A1C               	incf	(___flmul@temp+1)^0,f,c
  6020  0020C6                     i1l2827:
  6021  0020C6  BE1C               	btfsc	(___flmul@temp+1)^0,7,c
  6022  0020C8  EF6E  F010         	goto	i1u255_21
  6023  0020CC  501C               	movf	(___flmul@temp+1)^0,w,c
  6024  0020CE  E108               	bnz	i1u255_20
  6025  0020D0  281B               	incf	___flmul@temp^0,w,c
  6026  0020D2  A0D8               	btfss	status,0,c
  6027  0020D4  EF6E  F010         	goto	i1u255_21
  6028  0020D8  EF70  F010         	goto	i1u255_20
  6029  0020DC                     i1u255_21:
  6030  0020DC  EF7A  F010         	goto	i1l2831
  6031  0020E0                     i1u255_20:
  6032  0020E0  0E00               	movlw	0
  6033  0020E2  6E17               	movwf	___flmul@prod^0,c
  6034  0020E4  0E00               	movlw	0
  6035  0020E6  6E18               	movwf	(___flmul@prod+1)^0,c
  6036  0020E8  0E80               	movlw	128
  6037  0020EA  6E19               	movwf	(___flmul@prod+2)^0,c
  6038  0020EC  0E7F               	movlw	127
  6039  0020EE  6E1A               	movwf	(___flmul@prod+3)^0,c
  6040  0020F0  EFA8  F010         	goto	i1l2843
  6041  0020F4                     i1l2831:
  6042  0020F4  BE1C               	btfsc	(___flmul@temp+1)^0,7,c
  6043  0020F6  EF87  F010         	goto	i1u256_20
  6044  0020FA  501C               	movf	(___flmul@temp+1)^0,w,c
  6045  0020FC  E106               	bnz	i1u256_21
  6046  0020FE  041B               	decf	___flmul@temp^0,w,c
  6047  002100  B0D8               	btfsc	status,0,c
  6048  002102  EF85  F010         	goto	i1u256_21
  6049  002106  EF87  F010         	goto	i1u256_20
  6050  00210A                     i1u256_21:
  6051  00210A  EF93  F010         	goto	i1l893
  6052  00210E                     i1u256_20:
  6053  00210E  0E00               	movlw	0
  6054  002110  6E17               	movwf	___flmul@prod^0,c
  6055  002112  0E00               	movlw	0
  6056  002114  6E18               	movwf	(___flmul@prod+1)^0,c
  6057  002116  0E00               	movlw	0
  6058  002118  6E19               	movwf	(___flmul@prod+2)^0,c
  6059  00211A  0E00               	movlw	0
  6060  00211C  6E1A               	movwf	(___flmul@prod+3)^0,c
  6061  00211E  0E00               	movlw	0
  6062  002120  6E10               	movwf	___flmul@sign^0,c
  6063  002122  EFA8  F010         	goto	i1l2843
  6064  002126                     i1l893:
  6065  002126  C01B  F016         	movff	___flmul@temp,___flmul@bexp
  6066  00212A  0EFF               	movlw	255
  6067  00212C  1617               	andwf	___flmul@prod^0,f,c
  6068  00212E  0EFF               	movlw	255
  6069  002130  1618               	andwf	(___flmul@prod+1)^0,f,c
  6070  002132  0E7F               	movlw	127
  6071  002134  1619               	andwf	(___flmul@prod+2)^0,f,c
  6072  002136  0E00               	movlw	0
  6073  002138  161A               	andwf	(___flmul@prod+3)^0,f,c
  6074  00213A  A016               	btfss	___flmul@bexp^0,0,c
  6075  00213C  EFA2  F010         	goto	i1u257_21
  6076  002140  EFA4  F010         	goto	i1u257_20
  6077  002144                     i1u257_21:
  6078  002144  EFA5  F010         	goto	i1l2841
  6079  002148                     i1u257_20:
  6080  002148  8E19               	bsf	(___flmul@prod+2)^0,7,c
  6081  00214A                     i1l2841:
  6082  00214A  90D8               	bcf	status,0,c
  6083  00214C  3016               	rrcf	___flmul@bexp^0,w,c
  6084  00214E  6E1A               	movwf	(___flmul@prod+3)^0,c
  6085  002150                     i1l2843:
  6086  002150  5010               	movf	___flmul@sign^0,w,c
  6087  002152  121A               	iorwf	(___flmul@prod+3)^0,f,c
  6088  002154  C017  F004         	movff	___flmul@prod,?___flmul
  6089  002158  C018  F005         	movff	___flmul@prod+1,?___flmul+1
  6090  00215C  C019  F006         	movff	___flmul@prod+2,?___flmul+2
  6091  002160  C01A  F007         	movff	___flmul@prod+3,?___flmul+3
  6092  002164                     i1l880:
  6093  002164  0012               	return		;funcret
  6094  002166                     __end_of___flmul:
  6095                           	callstack 0
  6096                           
  6097 ;; *************** function ___fldiv *****************
  6098 ;; Defined at:
  6099 ;;		line 11 in file "/opt/microchip/xc8/v2.30/pic/sources/c99/common/sprcdiv.c"
  6100 ;; Parameters:    Size  Location     Type
  6101 ;;  b               4   52[COMRAM] unsigned char 
  6102 ;;  a               4   56[COMRAM] unsigned char 
  6103 ;; Auto vars:     Size  Location     Type
  6104 ;;  grs             4   71[COMRAM] unsigned long 
  6105 ;;  rem             4   64[COMRAM] unsigned long 
  6106 ;;  new_exp         2   69[COMRAM] short 
  6107 ;;  aexp            1   76[COMRAM] unsigned char 
  6108 ;;  bexp            1   75[COMRAM] unsigned char 
  6109 ;;  sign            1   68[COMRAM] unsigned char 
  6110 ;; Return value:  Size  Location     Type
  6111 ;;                  4   52[COMRAM] unsigned char 
  6112 ;; Registers used:
  6113 ;;		wreg, status,2, status,0
  6114 ;; Tracked objects:
  6115 ;;		On entry : 0/0
  6116 ;;		On exit  : 0/0
  6117 ;;		Unchanged: 0/0
  6118 ;; Data sizes:     COMRAM   BANK0   BANK1   BANK2   BANK3   BANK4   BANK5   BANK6   BANK7   BANK8   BANK9  BANK10  BANK1
      +1  BANK12  BANK13  BANK14  BANK15
  6119 ;;      Params:         8       0       0       0       0       0       0       0       0       0       0       0       
      +0       0       0       0       0
  6120 ;;      Locals:        13       0       0       0       0       0       0       0       0       0       0       0       
      +0       0       0       0       0
  6121 ;;      Temps:          4       0       0       0       0       0       0       0       0       0       0       0       
      +0       0       0       0       0
  6122 ;;      Totals:        25       0       0       0       0       0       0       0       0       0       0       0       
      +0       0       0       0       0
  6123 ;;Total ram usage:       25 bytes
  6124 ;; Hardware stack levels used:    1
  6125 ;; Hardware stack levels required when called:    3
  6126 ;; This function calls:
  6127 ;;		Nothing
  6128 ;; This function is called by:
  6129 ;;		_log2f
  6130 ;; This function uses a non-reentrant model
  6131 ;;
  6132                           
  6133                           	psect	text19
  6134  00254C                     __ptext19:
  6135                           	callstack 0
  6136  00254C                     ___fldiv:
  6137                           	callstack 19
  6138  00254C  5038               	movf	(___fldiv@b+3)^0,w,c
  6139  00254E  0B80               	andlw	128
  6140  002550  6E45               	movwf	___fldiv@sign^0,c
  6141  002552  5038               	movf	(___fldiv@b+3)^0,w,c
  6142  002554  2438               	addwf	(___fldiv@b+3)^0,w,c
  6143  002556  6E4C               	movwf	___fldiv@bexp^0,c
  6144  002558  AE37               	btfss	(___fldiv@b+2)^0,7,c
  6145  00255A  EFB1  F012         	goto	i1u216_21
  6146  00255E  EFB3  F012         	goto	i1u216_20
  6147  002562                     i1u216_21:
  6148  002562  EFB4  F012         	goto	i1l2587
  6149  002566                     i1u216_20:
  6150  002566  804C               	bsf	___fldiv@bexp^0,0,c
  6151  002568                     i1l2587:
  6152  002568  504C               	movf	___fldiv@bexp^0,w,c
  6153  00256A  B4D8               	btfsc	status,2,c
  6154  00256C  EFBA  F012         	goto	i1u217_21
  6155  002570  EFBC  F012         	goto	i1u217_20
  6156  002574                     i1u217_21:
  6157  002574  EFD1  F012         	goto	i1l2597
  6158  002578                     i1u217_20:
  6159  002578  284C               	incf	___fldiv@bexp^0,w,c
  6160  00257A  A4D8               	btfss	status,2,c
  6161  00257C  EFC2  F012         	goto	i1u218_21
  6162  002580  EFC4  F012         	goto	i1u218_20
  6163  002584                     i1u218_21:
  6164  002584  EFCC  F012         	goto	i1l2593
  6165  002588                     i1u218_20:
  6166  002588  0E00               	movlw	0
  6167  00258A  6E35               	movwf	___fldiv@b^0,c
  6168  00258C  0E00               	movlw	0
  6169  00258E  6E36               	movwf	(___fldiv@b+1)^0,c
  6170  002590  0E00               	movlw	0
  6171  002592  6E37               	movwf	(___fldiv@b+2)^0,c
  6172  002594  0E00               	movlw	0
  6173  002596  6E38               	movwf	(___fldiv@b+3)^0,c
  6174  002598                     i1l2593:
  6175  002598  8E37               	bsf	(___fldiv@b+2)^0,7,c
  6176  00259A  0E00               	movlw	0
  6177  00259C  6E38               	movwf	(___fldiv@b+3)^0,c
  6178  00259E  EFD9  F012         	goto	i1l2599
  6179  0025A2                     i1l2597:
  6180  0025A2  0E00               	movlw	0
  6181  0025A4  6E35               	movwf	___fldiv@b^0,c
  6182  0025A6  0E00               	movlw	0
  6183  0025A8  6E36               	movwf	(___fldiv@b+1)^0,c
  6184  0025AA  0E00               	movlw	0
  6185  0025AC  6E37               	movwf	(___fldiv@b+2)^0,c
  6186  0025AE  0E00               	movlw	0
  6187  0025B0  6E38               	movwf	(___fldiv@b+3)^0,c
  6188  0025B2                     i1l2599:
  6189  0025B2  503C               	movf	(___fldiv@a+3)^0,w,c
  6190  0025B4  0B80               	andlw	128
  6191  0025B6  1A45               	xorwf	___fldiv@sign^0,f,c
  6192  0025B8  503C               	movf	(___fldiv@a+3)^0,w,c
  6193  0025BA  243C               	addwf	(___fldiv@a+3)^0,w,c
  6194  0025BC  6E4D               	movwf	___fldiv@aexp^0,c
  6195  0025BE  AE3B               	btfss	(___fldiv@a+2)^0,7,c
  6196  0025C0  EFE4  F012         	goto	i1u219_21
  6197  0025C4  EFE6  F012         	goto	i1u219_20
  6198  0025C8                     i1u219_21:
  6199  0025C8  EFE7  F012         	goto	i1l2607
  6200  0025CC                     i1u219_20:
  6201  0025CC  804D               	bsf	___fldiv@aexp^0,0,c
  6202  0025CE                     i1l2607:
  6203  0025CE  504D               	movf	___fldiv@aexp^0,w,c
  6204  0025D0  B4D8               	btfsc	status,2,c
  6205  0025D2  EFED  F012         	goto	i1u220_21
  6206  0025D6  EFEF  F012         	goto	i1u220_20
  6207  0025DA                     i1u220_21:
  6208  0025DA  EF04  F013         	goto	i1l2617
  6209  0025DE                     i1u220_20:
  6210  0025DE  284D               	incf	___fldiv@aexp^0,w,c
  6211  0025E0  A4D8               	btfss	status,2,c
  6212  0025E2  EFF5  F012         	goto	i1u221_21
  6213  0025E6  EFF7  F012         	goto	i1u221_20
  6214  0025EA                     i1u221_21:
  6215  0025EA  EFFF  F012         	goto	i1l2613
  6216  0025EE                     i1u221_20:
  6217  0025EE  0E00               	movlw	0
  6218  0025F0  6E39               	movwf	___fldiv@a^0,c
  6219  0025F2  0E00               	movlw	0
  6220  0025F4  6E3A               	movwf	(___fldiv@a+1)^0,c
  6221  0025F6  0E00               	movlw	0
  6222  0025F8  6E3B               	movwf	(___fldiv@a+2)^0,c
  6223  0025FA  0E00               	movlw	0
  6224  0025FC  6E3C               	movwf	(___fldiv@a+3)^0,c
  6225  0025FE                     i1l2613:
  6226  0025FE  8E3B               	bsf	(___fldiv@a+2)^0,7,c
  6227  002600  0E00               	movlw	0
  6228  002602  6E3C               	movwf	(___fldiv@a+3)^0,c
  6229  002604  EF0C  F013         	goto	i1l2619
  6230  002608                     i1l2617:
  6231  002608  0E00               	movlw	0
  6232  00260A  6E39               	movwf	___fldiv@a^0,c
  6233  00260C  0E00               	movlw	0
  6234  00260E  6E3A               	movwf	(___fldiv@a+1)^0,c
  6235  002610  0E00               	movlw	0
  6236  002612  6E3B               	movwf	(___fldiv@a+2)^0,c
  6237  002614  0E00               	movlw	0
  6238  002616  6E3C               	movwf	(___fldiv@a+3)^0,c
  6239  002618                     i1l2619:
  6240  002618  5039               	movf	___fldiv@a^0,w,c
  6241  00261A  103A               	iorwf	(___fldiv@a+1)^0,w,c
  6242  00261C  103B               	iorwf	(___fldiv@a+2)^0,w,c
  6243  00261E  103C               	iorwf	(___fldiv@a+3)^0,w,c
  6244  002620  A4D8               	btfss	status,2,c
  6245  002622  EF15  F013         	goto	i1u222_21
  6246  002626  EF17  F013         	goto	i1u222_20
  6247  00262A                     i1u222_21:
  6248  00262A  EF2F  F013         	goto	i1l2631
  6249  00262E                     i1u222_20:
  6250  00262E  0E00               	movlw	0
  6251  002630  6E35               	movwf	___fldiv@b^0,c
  6252  002632  0E00               	movlw	0
  6253  002634  6E36               	movwf	(___fldiv@b+1)^0,c
  6254  002636  0E00               	movlw	0
  6255  002638  6E37               	movwf	(___fldiv@b+2)^0,c
  6256  00263A  0E00               	movlw	0
  6257  00263C  6E38               	movwf	(___fldiv@b+3)^0,c
  6258  00263E  0E80               	movlw	128
  6259  002640  1237               	iorwf	(___fldiv@b+2)^0,f,c
  6260  002642  0E7F               	movlw	127
  6261  002644  1238               	iorwf	(___fldiv@b+3)^0,f,c
  6262  002646                     i1l2625:
  6263  002646  5045               	movf	___fldiv@sign^0,w,c
  6264  002648  1238               	iorwf	(___fldiv@b+3)^0,f,c
  6265  00264A  C035  F035         	movff	___fldiv@b,?___fldiv
  6266  00264E  C036  F036         	movff	___fldiv@b+1,?___fldiv+1
  6267  002652  C037  F037         	movff	___fldiv@b+2,?___fldiv+2
  6268  002656  C038  F038         	movff	___fldiv@b+3,?___fldiv+3
  6269  00265A  EF72  F014         	goto	i1l844
  6270  00265E                     i1l2631:
  6271  00265E  504C               	movf	___fldiv@bexp^0,w,c
  6272  002660  A4D8               	btfss	status,2,c
  6273  002662  EF35  F013         	goto	i1u223_21
  6274  002666  EF37  F013         	goto	i1u223_20
  6275  00266A                     i1u223_21:
  6276  00266A  EF41  F013         	goto	i1l2639
  6277  00266E                     i1u223_20:
  6278  00266E  0E00               	movlw	0
  6279  002670  6E35               	movwf	?___fldiv^0,c
  6280  002672  0E00               	movlw	0
  6281  002674  6E36               	movwf	(?___fldiv+1)^0,c
  6282  002676  0E00               	movlw	0
  6283  002678  6E37               	movwf	(?___fldiv+2)^0,c
  6284  00267A  0E00               	movlw	0
  6285  00267C  6E38               	movwf	(?___fldiv+3)^0,c
  6286  00267E  EF72  F014         	goto	i1l844
  6287  002682                     i1l2639:
  6288  002682  504D               	movf	___fldiv@aexp^0,w,c
  6289  002684  C04C  F03D         	movff	___fldiv@bexp,??___fldiv
  6290  002688  6A3E               	clrf	(??___fldiv+1)^0,c
  6291  00268A  5E3D               	subwf	??___fldiv^0,f,c
  6292  00268C  0E00               	movlw	0
  6293  00268E  5A3E               	subwfb	(??___fldiv+1)^0,f,c
  6294  002690  0E7F               	movlw	127
  6295  002692  243D               	addwf	??___fldiv^0,w,c
  6296  002694  6E46               	movwf	___fldiv@new_exp^0,c
  6297  002696  0E00               	movlw	0
  6298  002698  203E               	addwfc	(??___fldiv+1)^0,w,c
  6299  00269A  6E47               	movwf	(___fldiv@new_exp+1)^0,c
  6300  00269C  C035  F041         	movff	___fldiv@b,___fldiv@rem
  6301  0026A0  C036  F042         	movff	___fldiv@b+1,___fldiv@rem+1
  6302  0026A4  C037  F043         	movff	___fldiv@b+2,___fldiv@rem+2
  6303  0026A8  C038  F044         	movff	___fldiv@b+3,___fldiv@rem+3
  6304  0026AC  0E00               	movlw	0
  6305  0026AE  6E35               	movwf	___fldiv@b^0,c
  6306  0026B0  0E00               	movlw	0
  6307  0026B2  6E36               	movwf	(___fldiv@b+1)^0,c
  6308  0026B4  0E00               	movlw	0
  6309  0026B6  6E37               	movwf	(___fldiv@b+2)^0,c
  6310  0026B8  0E00               	movlw	0
  6311  0026BA  6E38               	movwf	(___fldiv@b+3)^0,c
  6312  0026BC  0E00               	movlw	0
  6313  0026BE  6E48               	movwf	___fldiv@grs^0,c
  6314  0026C0  0E00               	movlw	0
  6315  0026C2  6E49               	movwf	(___fldiv@grs+1)^0,c
  6316  0026C4  0E00               	movlw	0
  6317  0026C6  6E4A               	movwf	(___fldiv@grs+2)^0,c
  6318  0026C8  0E00               	movlw	0
  6319  0026CA  6E4B               	movwf	(___fldiv@grs+3)^0,c
  6320  0026CC  0E00               	movlw	0
  6321  0026CE  6E4D               	movwf	___fldiv@aexp^0,c
  6322  0026D0  EFA2  F013         	goto	i1l846
  6323  0026D4                     i1l2649:
  6324  0026D4  504D               	movf	___fldiv@aexp^0,w,c
  6325  0026D6  B4D8               	btfsc	status,2,c
  6326  0026D8  EF70  F013         	goto	i1u224_21
  6327  0026DC  EF72  F013         	goto	i1u224_20
  6328  0026E0                     i1u224_21:
  6329  0026E0  EF89  F013         	goto	i1l2657
  6330  0026E4                     i1u224_20:
  6331  0026E4  90D8               	bcf	status,0,c
  6332  0026E6  3641               	rlcf	___fldiv@rem^0,f,c
  6333  0026E8  3642               	rlcf	(___fldiv@rem+1)^0,f,c
  6334  0026EA  3643               	rlcf	(___fldiv@rem+2)^0,f,c
  6335  0026EC  3644               	rlcf	(___fldiv@rem+3)^0,f,c
  6336  0026EE  90D8               	bcf	status,0,c
  6337  0026F0  3635               	rlcf	___fldiv@b^0,f,c
  6338  0026F2  3636               	rlcf	(___fldiv@b+1)^0,f,c
  6339  0026F4  3637               	rlcf	(___fldiv@b+2)^0,f,c
  6340  0026F6  3638               	rlcf	(___fldiv@b+3)^0,f,c
  6341  0026F8  AE4B               	btfss	(___fldiv@grs+3)^0,7,c
  6342  0026FA  EF81  F013         	goto	i1u225_21
  6343  0026FE  EF83  F013         	goto	i1u225_20
  6344  002702                     i1u225_21:
  6345  002702  EF84  F013         	goto	i1l849
  6346  002706                     i1u225_20:
  6347  002706  8035               	bsf	___fldiv@b^0,0,c
  6348  002708                     i1l849:
  6349  002708  90D8               	bcf	status,0,c
  6350  00270A  3648               	rlcf	___fldiv@grs^0,f,c
  6351  00270C  3649               	rlcf	(___fldiv@grs+1)^0,f,c
  6352  00270E  364A               	rlcf	(___fldiv@grs+2)^0,f,c
  6353  002710  364B               	rlcf	(___fldiv@grs+3)^0,f,c
  6354  002712                     i1l2657:
  6355  002712  5039               	movf	___fldiv@a^0,w,c
  6356  002714  5C41               	subwf	___fldiv@rem^0,w,c
  6357  002716  503A               	movf	(___fldiv@a+1)^0,w,c
  6358  002718  5842               	subwfb	(___fldiv@rem+1)^0,w,c
  6359  00271A  503B               	movf	(___fldiv@a+2)^0,w,c
  6360  00271C  5843               	subwfb	(___fldiv@rem+2)^0,w,c
  6361  00271E  503C               	movf	(___fldiv@a+3)^0,w,c
  6362  002720  5844               	subwfb	(___fldiv@rem+3)^0,w,c
  6363  002722  A0D8               	btfss	status,0,c
  6364  002724  EF96  F013         	goto	i1u226_21
  6365  002728  EF98  F013         	goto	i1u226_20
  6366  00272C                     i1u226_21:
  6367  00272C  EFA1  F013         	goto	i1l2663
  6368  002730                     i1u226_20:
  6369  002730  8C4B               	bsf	(___fldiv@grs+3)^0,6,c
  6370  002732  5039               	movf	___fldiv@a^0,w,c
  6371  002734  5E41               	subwf	___fldiv@rem^0,f,c
  6372  002736  503A               	movf	(___fldiv@a+1)^0,w,c
  6373  002738  5A42               	subwfb	(___fldiv@rem+1)^0,f,c
  6374  00273A  503B               	movf	(___fldiv@a+2)^0,w,c
  6375  00273C  5A43               	subwfb	(___fldiv@rem+2)^0,f,c
  6376  00273E  503C               	movf	(___fldiv@a+3)^0,w,c
  6377  002740  5A44               	subwfb	(___fldiv@rem+3)^0,f,c
  6378  002742                     i1l2663:
  6379  002742  2A4D               	incf	___fldiv@aexp^0,f,c
  6380  002744                     i1l846:
  6381  002744  0E19               	movlw	25
  6382  002746  644D               	cpfsgt	___fldiv@aexp^0,c
  6383  002748  EFA8  F013         	goto	i1u227_21
  6384  00274C  EFAA  F013         	goto	i1u227_20
  6385  002750                     i1u227_21:
  6386  002750  EF6A  F013         	goto	i1l2649
  6387  002754                     i1u227_20:
  6388  002754  5041               	movf	___fldiv@rem^0,w,c
  6389  002756  1042               	iorwf	(___fldiv@rem+1)^0,w,c
  6390  002758  1043               	iorwf	(___fldiv@rem+2)^0,w,c
  6391  00275A  1044               	iorwf	(___fldiv@rem+3)^0,w,c
  6392  00275C  B4D8               	btfsc	status,2,c
  6393  00275E  EFB3  F013         	goto	i1u228_21
  6394  002762  EFB5  F013         	goto	i1u228_20
  6395  002766                     i1u228_21:
  6396  002766  EFCD  F013         	goto	i1l2675
  6397  00276A                     i1u228_20:
  6398  00276A  8048               	bsf	___fldiv@grs^0,0,c
  6399  00276C  EFCD  F013         	goto	i1l2675
  6400  002770                     i1l2669:
  6401  002770  90D8               	bcf	status,0,c
  6402  002772  3635               	rlcf	___fldiv@b^0,f,c
  6403  002774  3636               	rlcf	(___fldiv@b+1)^0,f,c
  6404  002776  3637               	rlcf	(___fldiv@b+2)^0,f,c
  6405  002778  3638               	rlcf	(___fldiv@b+3)^0,f,c
  6406  00277A  AE4B               	btfss	(___fldiv@grs+3)^0,7,c
  6407  00277C  EFC2  F013         	goto	i1u229_21
  6408  002780  EFC4  F013         	goto	i1u229_20
  6409  002784                     i1u229_21:
  6410  002784  EFC5  F013         	goto	i1l855
  6411  002788                     i1u229_20:
  6412  002788  8035               	bsf	___fldiv@b^0,0,c
  6413  00278A                     i1l855:
  6414  00278A  90D8               	bcf	status,0,c
  6415  00278C  3648               	rlcf	___fldiv@grs^0,f,c
  6416  00278E  3649               	rlcf	(___fldiv@grs+1)^0,f,c
  6417  002790  364A               	rlcf	(___fldiv@grs+2)^0,f,c
  6418  002792  364B               	rlcf	(___fldiv@grs+3)^0,f,c
  6419  002794  0646               	decf	___fldiv@new_exp^0,f,c
  6420  002796  A0D8               	btfss	status,0,c
  6421  002798  0647               	decf	(___fldiv@new_exp+1)^0,f,c
  6422  00279A                     i1l2675:
  6423  00279A  AE37               	btfss	(___fldiv@b+2)^0,7,c
  6424  00279C  EFD2  F013         	goto	i1u230_21
  6425  0027A0  EFD4  F013         	goto	i1u230_20
  6426  0027A4                     i1u230_21:
  6427  0027A4  EFB8  F013         	goto	i1l2669
  6428  0027A8                     i1u230_20:
  6429  0027A8  0E00               	movlw	0
  6430  0027AA  6E4D               	movwf	___fldiv@aexp^0,c
  6431  0027AC  AE4B               	btfss	(___fldiv@grs+3)^0,7,c
  6432  0027AE  EFDB  F013         	goto	i1u231_21
  6433  0027B2  EFDD  F013         	goto	i1u231_20
  6434  0027B6                     i1u231_21:
  6435  0027B6  EF01  F014         	goto	i1l857
  6436  0027BA                     i1u231_20:
  6437  0027BA  0EFF               	movlw	255
  6438  0027BC  1448               	andwf	___fldiv@grs^0,w,c
  6439  0027BE  6E3D               	movwf	??___fldiv^0,c
  6440  0027C0  0EFF               	movlw	255
  6441  0027C2  1449               	andwf	(___fldiv@grs+1)^0,w,c
  6442  0027C4  6E3E               	movwf	(??___fldiv+1)^0,c
  6443  0027C6  0EFF               	movlw	255
  6444  0027C8  144A               	andwf	(___fldiv@grs+2)^0,w,c
  6445  0027CA  6E3F               	movwf	(??___fldiv+2)^0,c
  6446  0027CC  0E7F               	movlw	127
  6447  0027CE  144B               	andwf	(___fldiv@grs+3)^0,w,c
  6448  0027D0  6E40               	movwf	(??___fldiv+3)^0,c
  6449  0027D2  503D               	movf	??___fldiv^0,w,c
  6450  0027D4  103E               	iorwf	(??___fldiv+1)^0,w,c
  6451  0027D6  103F               	iorwf	(??___fldiv+2)^0,w,c
  6452  0027D8  1040               	iorwf	(??___fldiv+3)^0,w,c
  6453  0027DA  B4D8               	btfsc	status,2,c
  6454  0027DC  EFF2  F013         	goto	i1u232_21
  6455  0027E0  EFF4  F013         	goto	i1u232_20
  6456  0027E4                     i1u232_21:
  6457  0027E4  EFF8  F013         	goto	i1l858
  6458  0027E8                     i1u232_20:
  6459  0027E8                     i1l2683:
  6460  0027E8  0E01               	movlw	1
  6461  0027EA  6E4D               	movwf	___fldiv@aexp^0,c
  6462  0027EC  EF01  F014         	goto	i1l857
  6463  0027F0                     i1l858:
  6464  0027F0  A035               	btfss	___fldiv@b^0,0,c
  6465  0027F2  EFFD  F013         	goto	i1u233_21
  6466  0027F6  EFFF  F013         	goto	i1u233_20
  6467  0027FA                     i1u233_21:
  6468  0027FA  EF01  F014         	goto	i1l857
  6469  0027FE                     i1u233_20:
  6470  0027FE  EFF4  F013         	goto	i1l2683
  6471  002802                     i1l857:
  6472  002802  504D               	movf	___fldiv@aexp^0,w,c
  6473  002804  B4D8               	btfsc	status,2,c
  6474  002806  EF07  F014         	goto	i1u234_21
  6475  00280A  EF09  F014         	goto	i1u234_20
  6476  00280E                     i1u234_21:
  6477  00280E  EF2D  F014         	goto	i1l2695
  6478  002812                     i1u234_20:
  6479  002812  0E01               	movlw	1
  6480  002814  2635               	addwf	___fldiv@b^0,f,c
  6481  002816  0E00               	movlw	0
  6482  002818  2236               	addwfc	(___fldiv@b+1)^0,f,c
  6483  00281A  2237               	addwfc	(___fldiv@b+2)^0,f,c
  6484  00281C  2238               	addwfc	(___fldiv@b+3)^0,f,c
  6485  00281E  A038               	btfss	(___fldiv@b+3)^0,0,c
  6486  002820  EF14  F014         	goto	i1u235_21
  6487  002824  EF16  F014         	goto	i1u235_20
  6488  002828                     i1u235_21:
  6489  002828  EF2D  F014         	goto	i1l2695
  6490  00282C                     i1u235_20:
  6491  00282C  C035  F03D         	movff	___fldiv@b,??___fldiv
  6492  002830  C036  F03E         	movff	___fldiv@b+1,??___fldiv+1
  6493  002834  C037  F03F         	movff	___fldiv@b+2,??___fldiv+2
  6494  002838  C038  F040         	movff	___fldiv@b+3,??___fldiv+3
  6495  00283C  3440               	rlcf	(??___fldiv+3)^0,w,c
  6496  00283E  3240               	rrcf	(??___fldiv+3)^0,f,c
  6497  002840  323F               	rrcf	(??___fldiv+2)^0,f,c
  6498  002842  323E               	rrcf	(??___fldiv+1)^0,f,c
  6499  002844  323D               	rrcf	??___fldiv^0,f,c
  6500  002846  C03D  F035         	movff	??___fldiv,___fldiv@b
  6501  00284A  C03E  F036         	movff	??___fldiv+1,___fldiv@b+1
  6502  00284E  C03F  F037         	movff	??___fldiv+2,___fldiv@b+2
  6503  002852  C040  F038         	movff	??___fldiv+3,___fldiv@b+3
  6504  002856  4A46               	infsnz	___fldiv@new_exp^0,f,c
  6505  002858  2A47               	incf	(___fldiv@new_exp+1)^0,f,c
  6506  00285A                     i1l2695:
  6507  00285A  BE47               	btfsc	(___fldiv@new_exp+1)^0,7,c
  6508  00285C  EF38  F014         	goto	i1u236_21
  6509  002860  5047               	movf	(___fldiv@new_exp+1)^0,w,c
  6510  002862  E108               	bnz	i1u236_20
  6511  002864  2846               	incf	___fldiv@new_exp^0,w,c
  6512  002866  A0D8               	btfss	status,0,c
  6513  002868  EF38  F014         	goto	i1u236_21
  6514  00286C  EF3A  F014         	goto	i1u236_20
  6515  002870                     i1u236_21:
  6516  002870  EF45  F014         	goto	i1l2699
  6517  002874                     i1u236_20:
  6518  002874  0E00               	movlw	0
  6519  002876  6E47               	movwf	(___fldiv@new_exp+1)^0,c
  6520  002878  6846               	setf	___fldiv@new_exp^0,c
  6521  00287A  0E00               	movlw	0
  6522  00287C  6E35               	movwf	___fldiv@b^0,c
  6523  00287E  0E00               	movlw	0
  6524  002880  6E36               	movwf	(___fldiv@b+1)^0,c
  6525  002882  0E00               	movlw	0
  6526  002884  6E37               	movwf	(___fldiv@b+2)^0,c
  6527  002886  0E00               	movlw	0
  6528  002888  6E38               	movwf	(___fldiv@b+3)^0,c
  6529  00288A                     i1l2699:
  6530  00288A  BE47               	btfsc	(___fldiv@new_exp+1)^0,7,c
  6531  00288C  EF52  F014         	goto	i1u237_20
  6532  002890  5047               	movf	(___fldiv@new_exp+1)^0,w,c
  6533  002892  E106               	bnz	i1u237_21
  6534  002894  0446               	decf	___fldiv@new_exp^0,w,c
  6535  002896  B0D8               	btfsc	status,0,c
  6536  002898  EF50  F014         	goto	i1u237_21
  6537  00289C  EF52  F014         	goto	i1u237_20
  6538  0028A0                     i1u237_21:
  6539  0028A0  EF60  F014         	goto	i1l2703
  6540  0028A4                     i1u237_20:
  6541  0028A4  0E00               	movlw	0
  6542  0028A6  6E47               	movwf	(___fldiv@new_exp+1)^0,c
  6543  0028A8  0E00               	movlw	0
  6544  0028AA  6E46               	movwf	___fldiv@new_exp^0,c
  6545  0028AC  0E00               	movlw	0
  6546  0028AE  6E35               	movwf	___fldiv@b^0,c
  6547  0028B0  0E00               	movlw	0
  6548  0028B2  6E36               	movwf	(___fldiv@b+1)^0,c
  6549  0028B4  0E00               	movlw	0
  6550  0028B6  6E37               	movwf	(___fldiv@b+2)^0,c
  6551  0028B8  0E00               	movlw	0
  6552  0028BA  6E38               	movwf	(___fldiv@b+3)^0,c
  6553  0028BC  0E00               	movlw	0
  6554  0028BE  6E45               	movwf	___fldiv@sign^0,c
  6555  0028C0                     i1l2703:
  6556  0028C0  C046  F04C         	movff	___fldiv@new_exp,___fldiv@bexp
  6557  0028C4  A04C               	btfss	___fldiv@bexp^0,0,c
  6558  0028C6  EF67  F014         	goto	i1u238_21
  6559  0028CA  EF69  F014         	goto	i1u238_20
  6560  0028CE                     i1u238_21:
  6561  0028CE  EF6C  F014         	goto	i1l2709
  6562  0028D2                     i1u238_20:
  6563  0028D2  8E37               	bsf	(___fldiv@b+2)^0,7,c
  6564  0028D4  EF6D  F014         	goto	i1l2711
  6565  0028D8                     i1l2709:
  6566  0028D8  9E37               	bcf	(___fldiv@b+2)^0,7,c
  6567  0028DA                     i1l2711:
  6568  0028DA  90D8               	bcf	status,0,c
  6569  0028DC  304C               	rrcf	___fldiv@bexp^0,w,c
  6570  0028DE  6E38               	movwf	(___fldiv@b+3)^0,c
  6571  0028E0  EF23  F013         	goto	i1l2625
  6572  0028E4                     i1l844:
  6573  0028E4  0012               	return		;funcret
  6574  0028E6                     __end_of___fldiv:
  6575                           	callstack 0
  6576                           
  6577 ;; *************** function ___fltol *****************
  6578 ;; Defined at:
  6579 ;;		line 43 in file "/opt/microchip/xc8/v2.30/pic/sources/c99/common/fltol.c"
  6580 ;; Parameters:    Size  Location     Type
  6581 ;;  f1              4   74[BANK0 ] unsigned char 
  6582 ;; Auto vars:     Size  Location     Type
  6583 ;;  exp1            1   88[COMRAM] unsigned char 
  6584 ;;  sign1           1   87[COMRAM] unsigned char 
  6585 ;; Return value:  Size  Location     Type
  6586 ;;                  4   74[BANK0 ] long 
  6587 ;; Registers used:
  6588 ;;		wreg, status,2, status,0
  6589 ;; Tracked objects:
  6590 ;;		On entry : 0/0
  6591 ;;		On exit  : 0/0
  6592 ;;		Unchanged: 0/0
  6593 ;; Data sizes:     COMRAM   BANK0   BANK1   BANK2   BANK3   BANK4   BANK5   BANK6   BANK7   BANK8   BANK9  BANK10  BANK1
      +1  BANK12  BANK13  BANK14  BANK15
  6594 ;;      Params:         0       4       0       0       0       0       0       0       0       0       0       0       
      +0       0       0       0       0
  6595 ;;      Locals:         2       0       0       0       0       0       0       0       0       0       0       0       
      +0       0       0       0       0
  6596 ;;      Temps:          0       4       0       0       0       0       0       0       0       0       0       0       
      +0       0       0       0       0
  6597 ;;      Totals:         2       8       0       0       0       0       0       0       0       0       0       0       
      +0       0       0       0       0
  6598 ;;Total ram usage:       10 bytes
  6599 ;; Hardware stack levels used:    1
  6600 ;; Hardware stack levels required when called:    3
  6601 ;; This function calls:
  6602 ;;		Nothing
  6603 ;; This function is called by:
  6604 ;;		_seven_segment
  6605 ;; This function uses a non-reentrant model
  6606 ;;
  6607                           
  6608                           	psect	text20
  6609  0031EA                     __ptext20:
  6610                           	callstack 0
  6611  0031EA                     ___fltol:
  6612                           	callstack 20
  6613  0031EA  0100               	movlb	0	; () banked
  6614  0031EC  35AC               	rlcf	(___fltol@f1+2)& (0+255),w,b
  6615  0031EE  35AD               	rlcf	(___fltol@f1+3)& (0+255),w,b
  6616  0031F0  6E59               	movwf	___fltol@exp1^0,c
  6617  0031F2  5059               	movf	___fltol@exp1^0,w,c
  6618  0031F4  A4D8               	btfss	status,2,c
  6619  0031F6  EFFF  F018         	goto	i1u351_21
  6620  0031FA  EF01  F019         	goto	i1u351_20
  6621  0031FE                     i1u351_21:
  6622  0031FE  EF0B  F019         	goto	i1l3515
  6623  003202                     i1u351_20:
  6624  003202                     i1l3511:
  6625                           
  6626                           ; BSR set to: 0
  6627  003202  0E00               	movlw	0
  6628  003204  6FAA               	movwf	?___fltol& (0+255),b
  6629  003206  0E00               	movlw	0
  6630  003208  6FAB               	movwf	(?___fltol+1)& (0+255),b
  6631  00320A  0E00               	movlw	0
  6632  00320C  6FAC               	movwf	(?___fltol+2)& (0+255),b
  6633  00320E  0E00               	movlw	0
  6634  003210  6FAD               	movwf	(?___fltol+3)& (0+255),b
  6635  003212  EF78  F019         	goto	i1l559
  6636  003216                     i1l3515:
  6637                           
  6638                           ; BSR set to: 0
  6639  003216  C0AA  F0AE         	movff	___fltol@f1,??___fltol
  6640  00321A  C0AB  F0AF         	movff	___fltol@f1+1,??___fltol+1
  6641  00321E  C0AC  F0B0         	movff	___fltol@f1+2,??___fltol+2
  6642  003222  C0AD  F0B1         	movff	___fltol@f1+3,??___fltol+3
  6643  003226  0E20               	movlw	32
  6644  003228  EF1B  F019         	goto	i1u352_20
  6645  00322C                     i1u352_25:
  6646  00322C  90D8               	bcf	status,0,c
  6647  00322E  33B1               	rrcf	(??___fltol+3)& (0+255),f,b
  6648  003230  33B0               	rrcf	(??___fltol+2)& (0+255),f,b
  6649  003232  33AF               	rrcf	(??___fltol+1)& (0+255),f,b
  6650  003234  33AE               	rrcf	??___fltol& (0+255),f,b
  6651  003236                     i1u352_20:
  6652  003236  2EE8               	decfsz	wreg,f,c
  6653  003238  EF16  F019         	goto	i1u352_25
  6654  00323C  51AE               	movf	??___fltol& (0+255),w,b
  6655  00323E  6E58               	movwf	___fltol@sign1^0,c
  6656  003240                     
  6657                           ; BSR set to: 0
  6658  003240  8FAC               	bsf	(___fltol@f1+2)& (0+255),7,b
  6659  003242                     
  6660                           ; BSR set to: 0
  6661  003242  0EFF               	movlw	255
  6662  003244  17AA               	andwf	___fltol@f1& (0+255),f,b
  6663  003246  0EFF               	movlw	255
  6664  003248  17AB               	andwf	(___fltol@f1+1)& (0+255),f,b
  6665  00324A  0EFF               	movlw	255
  6666  00324C  17AC               	andwf	(___fltol@f1+2)& (0+255),f,b
  6667  00324E  0E00               	movlw	0
  6668  003250  17AD               	andwf	(___fltol@f1+3)& (0+255),f,b
  6669  003252                     
  6670                           ; BSR set to: 0
  6671  003252  0E96               	movlw	150
  6672  003254  5E59               	subwf	___fltol@exp1^0,f,c
  6673  003256                     
  6674                           ; BSR set to: 0
  6675  003256  BE59               	btfsc	___fltol@exp1^0,7,c
  6676  003258  EF32  F019         	goto	i1u353_20
  6677  00325C  EF30  F019         	goto	i1u353_21
  6678  003260                     i1u353_21:
  6679  003260  EF48  F019         	goto	i1l3535
  6680  003264                     i1u353_20:
  6681  003264                     
  6682                           ; BSR set to: 0
  6683  003264  5059               	movf	___fltol@exp1^0,w,c
  6684  003266  0A80               	xorlw	128
  6685  003268  0F97               	addlw	151
  6686  00326A  B0D8               	btfsc	status,0,c
  6687  00326C  EF3A  F019         	goto	i1u354_21
  6688  003270  EF3C  F019         	goto	i1u354_20
  6689  003274                     i1u354_21:
  6690  003274  EF3E  F019         	goto	i1l3531
  6691  003278                     i1u354_20:
  6692  003278  EF01  F019         	goto	i1l3511
  6693  00327C                     i1l3531:
  6694                           
  6695                           ; BSR set to: 0
  6696  00327C  90D8               	bcf	status,0,c
  6697  00327E  33AD               	rrcf	(___fltol@f1+3)& (0+255),f,b
  6698  003280  33AC               	rrcf	(___fltol@f1+2)& (0+255),f,b
  6699  003282  33AB               	rrcf	(___fltol@f1+1)& (0+255),f,b
  6700  003284  33AA               	rrcf	___fltol@f1& (0+255),f,b
  6701  003286                     
  6702                           ; BSR set to: 0
  6703  003286  3E59               	incfsz	___fltol@exp1^0,f,c
  6704  003288  EF3E  F019         	goto	i1l3531
  6705  00328C  EF60  F019         	goto	i1l3545
  6706  003290                     i1l3535:
  6707                           
  6708                           ; BSR set to: 0
  6709  003290  0E1F               	movlw	31
  6710  003292  6459               	cpfsgt	___fltol@exp1^0,c
  6711  003294  EF4E  F019         	goto	i1u355_21
  6712  003298  EF50  F019         	goto	i1u355_20
  6713  00329C                     i1u355_21:
  6714  00329C  EF58  F019         	goto	i1l3543
  6715  0032A0                     i1u355_20:
  6716  0032A0  EF01  F019         	goto	i1l3511
  6717  0032A4                     i1l3541:
  6718                           
  6719                           ; BSR set to: 0
  6720  0032A4  90D8               	bcf	status,0,c
  6721  0032A6  37AA               	rlcf	___fltol@f1& (0+255),f,b
  6722  0032A8  37AB               	rlcf	(___fltol@f1+1)& (0+255),f,b
  6723  0032AA  37AC               	rlcf	(___fltol@f1+2)& (0+255),f,b
  6724  0032AC  37AD               	rlcf	(___fltol@f1+3)& (0+255),f,b
  6725  0032AE  0659               	decf	___fltol@exp1^0,f,c
  6726  0032B0                     i1l3543:
  6727                           
  6728                           ; BSR set to: 0
  6729  0032B0  5059               	movf	___fltol@exp1^0,w,c
  6730  0032B2  A4D8               	btfss	status,2,c
  6731  0032B4  EF5E  F019         	goto	i1u356_21
  6732  0032B8  EF60  F019         	goto	i1u356_20
  6733  0032BC                     i1u356_21:
  6734  0032BC  EF52  F019         	goto	i1l3541
  6735  0032C0                     i1u356_20:
  6736  0032C0                     i1l3545:
  6737                           
  6738                           ; BSR set to: 0
  6739  0032C0  5058               	movf	___fltol@sign1^0,w,c
  6740  0032C2  B4D8               	btfsc	status,2,c
  6741  0032C4  EF66  F019         	goto	i1u357_21
  6742  0032C8  EF68  F019         	goto	i1u357_20
  6743  0032CC                     i1u357_21:
  6744  0032CC  EF70  F019         	goto	i1l3549
  6745  0032D0                     i1u357_20:
  6746  0032D0                     
  6747                           ; BSR set to: 0
  6748  0032D0  1FAD               	comf	(___fltol@f1+3)& (0+255),f,b
  6749  0032D2  1FAC               	comf	(___fltol@f1+2)& (0+255),f,b
  6750  0032D4  1FAB               	comf	(___fltol@f1+1)& (0+255),f,b
  6751  0032D6  6DAA               	negf	___fltol@f1& (0+255),b
  6752  0032D8  0E00               	movlw	0
  6753  0032DA  23AB               	addwfc	(___fltol@f1+1)& (0+255),f,b
  6754  0032DC  23AC               	addwfc	(___fltol@f1+2)& (0+255),f,b
  6755  0032DE  23AD               	addwfc	(___fltol@f1+3)& (0+255),f,b
  6756  0032E0                     i1l3549:
  6757                           
  6758                           ; BSR set to: 0
  6759  0032E0  C0AA  F0AA         	movff	___fltol@f1,?___fltol
  6760  0032E4  C0AB  F0AB         	movff	___fltol@f1+1,?___fltol+1
  6761  0032E8  C0AC  F0AC         	movff	___fltol@f1+2,?___fltol+2
  6762  0032EC  C0AD  F0AD         	movff	___fltol@f1+3,?___fltol+3
  6763  0032F0                     i1l559:
  6764                           
  6765                           ; BSR set to: 0
  6766  0032F0  0012               	return		;funcret
  6767  0032F2                     __end_of___fltol:
  6768                           	callstack 0
  6769                           
  6770 ;; *************** function _highPriorityISR *****************
  6771 ;; Defined at:
  6772 ;;		line 51 in file "../../Desktop/336/the3/the3.c"
  6773 ;; Parameters:    Size  Location     Type
  6774 ;;		None
  6775 ;; Auto vars:     Size  Location     Type
  6776 ;;		None
  6777 ;; Return value:  Size  Location     Type
  6778 ;;                  1    wreg      void 
  6779 ;; Registers used:
  6780 ;;		wreg, status,2, status,0, cstack
  6781 ;; Tracked objects:
  6782 ;;		On entry : 0/0
  6783 ;;		On exit  : 0/0
  6784 ;;		Unchanged: 0/0
  6785 ;; Data sizes:     COMRAM   BANK0   BANK1   BANK2   BANK3   BANK4   BANK5   BANK6   BANK7   BANK8   BANK9  BANK10  BANK1
      +1  BANK12  BANK13  BANK14  BANK15
  6786 ;;      Params:         0       0       0       0       0       0       0       0       0       0       0       0       
      +0       0       0       0       0
  6787 ;;      Locals:         0       0       0       0       0       0       0       0       0       0       0       0       
      +0       0       0       0       0
  6788 ;;      Temps:          2       0       0       0       0       0       0       0       0       0       0       0       
      +0       0       0       0       0
  6789 ;;      Totals:         2       0       0       0       0       0       0       0       0       0       0       0       
      +0       0       0       0       0
  6790 ;;Total ram usage:        2 bytes
  6791 ;; Hardware stack levels used:    1
  6792 ;; Hardware stack levels required when called:    2
  6793 ;; This function calls:
  6794 ;;		i2_SendBusContents
  6795 ;; This function is called by:
  6796 ;;		Interrupt level 2
  6797 ;; This function uses a non-reentrant model
  6798 ;;
  6799                           
  6800                           	psect	intcode
  6801  000008                     __pintcode:
  6802                           	callstack 0
  6803  000008                     _highPriorityISR:
  6804                           	callstack 18
  6805                           
  6806                           ; BSR set to: 0
  6807                           ;incstack = 0
  6808  000008  825C               	bsf	int$flags,1,c	;set compiler interrupt flag (level 2)
  6809  00000A  ED79  F019         	call	int_func,f	;refresh shadow registers
  6810                           
  6811                           	psect	intcode_body
  6812  0032F2                     __pintcode_body:
  6813                           	callstack 18
  6814  0032F2                     int_func:
  6815                           	callstack 18
  6816  0032F2  0006               	pop		; remove dummy address from shadow register refresh
  6817  0032F4                     
  6818                           ;../../Desktop/336/the3/the3.c: 52:                 }
  6819  0032F4  AC9E               	btfss	158,6,c	;volatile
  6820  0032F6  EF7F  F019         	goto	i2u342_41
  6821  0032FA  EF81  F019         	goto	i2u342_40
  6822  0032FE                     i2u342_41:
  6823  0032FE  EFE8  F019         	goto	i2l117
  6824  003302                     i2u342_40:
  6825  003302                     
  6826                           ;../../Desktop/336/the3/the3.c: 53:             }
  6827  003302  B2C2               	btfsc	194,1,c	;volatile
  6828  003304  EF86  F019         	goto	i2u343_41
  6829  003308  EF88  F019         	goto	i2u343_40
  6830  00330C                     i2u343_41:
  6831  00330C  EFE8  F019         	goto	i2l117
  6832  003310                     i2u343_40:
  6833  003310                     
  6834                           ;../../Desktop/336/the3/the3.c: 55:                 currentIndex=0;
  6835  003310  9C9E               	bcf	158,6,c	;volatile
  6836  003312                     
  6837                           ;../../Desktop/336/the3/the3.c: 57:                 while(old_pos!=result){
  6838  003312  50C4               	movf	196,w,c	;volatile
  6839  003314  6E03               	movwf	(??_highPriorityISR+1)^0,c
  6840  003316  6A02               	clrf	??_highPriorityISR^0,c
  6841  003318  50C3               	movf	195,w,c	;volatile
  6842  00331A  2402               	addwf	??_highPriorityISR^0,w,c
  6843  00331C  0101               	movlb	1	; () banked
  6844  00331E  6F72               	movwf	_result& (0+255),b
  6845  003320  0E00               	movlw	0
  6846  003322  2003               	addwfc	(??_highPriorityISR+1)^0,w,c
  6847  003324  6F73               	movwf	(_result+1)& (0+255),b
  6848                           
  6849                           ;../../Desktop/336/the3/the3.c: 59:                     SendBusContents(0x10);
  6850  003326  0E06               	movlw	6
  6851  003328  6E02               	movwf	??_highPriorityISR^0,c
  6852  00332A                     i2u344_45:
  6853  00332A  90D8               	bcf	status,0,c
  6854  00332C  3373               	rrcf	(_result+1)& (0+255),f,b
  6855  00332E  3372               	rrcf	_result& (0+255),f,b
  6856  003330  2E02               	decfsz	??_highPriorityISR^0,f,c
  6857  003332  EF95  F019         	goto	i2u344_45
  6858                           
  6859                           ;../../Desktop/336/the3/the3.c: 60: 
  6860  003336  5172               	movf	_result& (0+255),w,b
  6861  003338  5C5A               	subwf	_old_pos^0,w,c
  6862  00333A  5173               	movf	(_result+1)& (0+255),w,b
  6863  00333C  585B               	subwfb	(_old_pos+1)^0,w,c
  6864  00333E  B0D8               	btfsc	status,0,c
  6865  003340  EFA4  F019         	goto	i2u345_41
  6866  003344  EFA6  F019         	goto	i2u345_40
  6867  003348                     i2u345_41:
  6868  003348  EFC1  F019         	goto	i2l3477
  6869  00334C                     i2u345_40:
  6870  00334C                     
  6871                           ; BSR set to: 1
  6872                           ;../../Desktop/336/the3/the3.c: 61:                     old_pos--;
  6873  00334C  0E00               	movlw	0
  6874  00334E  6F75               	movwf	(_currentIndex+1)& (0+255),b
  6875  003350  0E00               	movlw	0
  6876  003352  6F74               	movwf	_currentIndex& (0+255),b
  6877  003354                     
  6878                           ; BSR set to: 1
  6879                           ;../../Desktop/336/the3/the3.c: 62:                 }
  6880  003354  699C               	setf	_customIndex& (0+255),b
  6881  003356  699D               	setf	(_customIndex+1)& (0+255),b
  6882                           
  6883                           ;../../Desktop/336/the3/the3.c: 63:             }
  6884  003358  EFB4  F019         	goto	i2l3475
  6885  00335C                     i2l111:
  6886                           
  6887                           ; BSR set to: 1
  6888                           ;../../Desktop/336/the3/the3.c: 64: 
  6889  00335C  9481               	bcf	129,2,c	;volatile
  6890  00335E                     
  6891                           ; BSR set to: 1
  6892                           ;../../Desktop/336/the3/the3.c: 65:         }
  6893  00335E  0E14               	movlw	20
  6894  003360  ECC9  F01B         	call	i2_SendBusContents
  6895  003364                     
  6896                           ;../../Desktop/336/the3/the3.c: 67: }
  6897  003364  4A5A               	infsnz	_old_pos^0,f,c
  6898  003366  2A5B               	incf	(_old_pos+1)^0,f,c
  6899  003368                     i2l3475:
  6900                           
  6901                           ;../../Desktop/336/the3/the3.c: 63:             }
  6902  003368  0101               	movlb	1	; () banked
  6903  00336A  5172               	movf	_result& (0+255),w,b
  6904  00336C  185A               	xorwf	_old_pos^0,w,c
  6905  00336E  E107               	bnz	i2u346_41
  6906  003370  5173               	movf	(_result+1)& (0+255),w,b
  6907  003372  185B               	xorwf	(_old_pos+1)^0,w,c
  6908  003374  A4D8               	btfss	status,2,c
  6909  003376  EFBF  F019         	goto	i2u346_41
  6910  00337A  EFC1  F019         	goto	i2u346_40
  6911  00337E                     i2u346_41:
  6912  00337E  EFAE  F019         	goto	i2l111
  6913  003382                     i2u346_40:
  6914  003382                     i2l3477:
  6915                           
  6916                           ; BSR set to: 1
  6917                           ;../../Desktop/336/the3/the3.c: 70:  if (PIR1bits.TMR1IF) seven_segment();
  6918  003382  505A               	movf	_old_pos^0,w,c
  6919  003384  5D72               	subwf	_result& (0+255),w,b
  6920  003386  505B               	movf	(_old_pos+1)^0,w,c
  6921  003388  5973               	subwfb	(_result+1)& (0+255),w,b
  6922  00338A  B0D8               	btfsc	status,0,c
  6923  00338C  EFCA  F019         	goto	i2u347_41
  6924  003390  EFCC  F019         	goto	i2u347_40
  6925  003394                     i2u347_41:
  6926  003394  EFE8  F019         	goto	i2l117
  6927  003398                     i2u347_40:
  6928  003398                     
  6929                           ; BSR set to: 1
  6930                           ;../../Desktop/336/the3/the3.c: 71: }
  6931  003398  0E00               	movlw	0
  6932  00339A  6F75               	movwf	(_currentIndex+1)& (0+255),b
  6933  00339C  0E00               	movlw	0
  6934  00339E  6F74               	movwf	_currentIndex& (0+255),b
  6935  0033A0                     
  6936                           ; BSR set to: 1
  6937                           ;../../Desktop/336/the3/the3.c: 72: 
  6938  0033A0  699C               	setf	_customIndex& (0+255),b
  6939  0033A2  699D               	setf	(_customIndex+1)& (0+255),b
  6940                           
  6941                           ;../../Desktop/336/the3/the3.c: 73: void seven_segment(){
  6942  0033A4  EFDB  F019         	goto	i2l3487
  6943  0033A8                     i2l115:
  6944                           
  6945                           ; BSR set to: 1
  6946                           ;../../Desktop/336/the3/the3.c: 74:     PIR1bits.TMR1IF = 0;
  6947  0033A8  9481               	bcf	129,2,c	;volatile
  6948  0033AA                     
  6949                           ; BSR set to: 1
  6950                           ;../../Desktop/336/the3/the3.c: 75:  LATH = 0x01;
  6951  0033AA  0E10               	movlw	16
  6952  0033AC  ECC9  F01B         	call	i2_SendBusContents
  6953  0033B0                     
  6954                           ;../../Desktop/336/the3/the3.c: 77:  _delay((unsigned long)((1)*(40000000/4000.0)));
  6955  0033B0  065A               	decf	_old_pos^0,f,c
  6956  0033B2  A0D8               	btfss	status,0,c
  6957  0033B4  065B               	decf	(_old_pos+1)^0,f,c
  6958  0033B6                     i2l3487:
  6959                           
  6960                           ;../../Desktop/336/the3/the3.c: 73: void seven_segment(){
  6961  0033B6  0101               	movlb	1	; () banked
  6962  0033B8  5172               	movf	_result& (0+255),w,b
  6963  0033BA  185A               	xorwf	_old_pos^0,w,c
  6964  0033BC  E107               	bnz	i2u348_41
  6965  0033BE  5173               	movf	(_result+1)& (0+255),w,b
  6966  0033C0  185B               	xorwf	(_old_pos+1)^0,w,c
  6967  0033C2  A4D8               	btfss	status,2,c
  6968  0033C4  EFE6  F019         	goto	i2u348_41
  6969  0033C8  EFE8  F019         	goto	i2u348_40
  6970  0033CC                     i2u348_41:
  6971  0033CC  EFD4  F019         	goto	i2l115
  6972  0033D0                     i2u348_40:
  6973  0033D0                     i2l117:
  6974  0033D0  925C               	bcf	int$flags,1,c	;clear compiler interrupt flag (level 2)
  6975  0033D2  0011               	retfie		f
  6976  0033D4                     __end_of_highPriorityISR:
  6977                           	callstack 0
  6978                           
  6979 ;; *************** function i2_SendBusContents *****************
  6980 ;; Defined at:
  6981 ;;		line 154 in file "../../Desktop/336/the3/the3.c"
  6982 ;; Parameters:    Size  Location     Type
  6983 ;;  data            1    wreg     unsigned char 
  6984 ;; Auto vars:     Size  Location     Type
  6985 ;;  data            1    0[COMRAM] unsigned char 
  6986 ;; Return value:  Size  Location     Type
  6987 ;;                  1    wreg      void 
  6988 ;; Registers used:
  6989 ;;		wreg, status,2, status,0, cstack
  6990 ;; Tracked objects:
  6991 ;;		On entry : 0/0
  6992 ;;		On exit  : 0/0
  6993 ;;		Unchanged: 0/0
  6994 ;; Data sizes:     COMRAM   BANK0   BANK1   BANK2   BANK3   BANK4   BANK5   BANK6   BANK7   BANK8   BANK9  BANK10  BANK1
      +1  BANK12  BANK13  BANK14  BANK15
  6995 ;;      Params:         0       0       0       0       0       0       0       0       0       0       0       0       
      +0       0       0       0       0
  6996 ;;      Locals:         1       0       0       0       0       0       0       0       0       0       0       0       
      +0       0       0       0       0
  6997 ;;      Temps:          0       0       0       0       0       0       0       0       0       0       0       0       
      +0       0       0       0       0
  6998 ;;      Totals:         1       0       0       0       0       0       0       0       0       0       0       0       
      +0       0       0       0       0
  6999 ;;Total ram usage:        1 bytes
  7000 ;; Hardware stack levels used:    1
  7001 ;; Hardware stack levels required when called:    1
  7002 ;; This function calls:
  7003 ;;		i2_Pulse
  7004 ;; This function is called by:
  7005 ;;		_highPriorityISR
  7006 ;; This function uses a non-reentrant model
  7007 ;;
  7008                           
  7009                           	psect	text22
  7010  003792                     __ptext22:
  7011                           	callstack 0
  7012  003792                     i2_SendBusContents:
  7013                           	callstack 18
  7014                           
  7015                           ;incstack = 0
  7016                           ;i2SendBusContents@data stored from wreg
  7017  003792  6E01               	movwf	i2SendBusContents@data^0,c
  7018  003794                     
  7019                           ;../../Desktop/336/the3/the3.c: 155: 
  7020  003794  5083               	movf	131,w,c	;volatile
  7021  003796  0B0F               	andlw	15
  7022  003798  6E83               	movwf	131,c	;volatile
  7023                           
  7024                           ;../../Desktop/336/the3/the3.c: 156: 
  7025  00379A  5001               	movf	i2SendBusContents@data^0,w,c
  7026  00379C  0BF0               	andlw	240
  7027  00379E  1083               	iorwf	131,w,c	;volatile
  7028  0037A0  6E83               	movwf	131,c	;volatile
  7029  0037A2                     
  7030                           ;../../Desktop/336/the3/the3.c: 157: 
  7031  0037A2  EC15  F01C         	call	i2_Pulse	;wreg free
  7032  0037A6                     
  7033                           ;../../Desktop/336/the3/the3.c: 158:     a_result = LATA & 0b00000001;
  7034  0037A6  5083               	movf	131,w,c	;volatile
  7035  0037A8  0B0F               	andlw	15
  7036  0037AA  6E83               	movwf	131,c	;volatile
  7037  0037AC                     
  7038                           ;../../Desktop/336/the3/the3.c: 159:     a_result = a_result << 4;
  7039  0037AC  3801               	swapf	i2SendBusContents@data^0,w,c
  7040  0037AE  0BF0               	andlw	240
  7041  0037B0  0BF0               	andlw	240
  7042  0037B2  1083               	iorwf	131,w,c	;volatile
  7043  0037B4  6E83               	movwf	131,c	;volatile
  7044  0037B6                     
  7045                           ;../../Desktop/336/the3/the3.c: 160:     b_result = LATB & 0b00000001;
  7046  0037B6  EC15  F01C         	call	i2_Pulse	;wreg free
  7047  0037BA  0012               	return		;funcret
  7048  0037BC                     __end_ofi2_SendBusContents:
  7049                           	callstack 0
  7050                           
  7051 ;; *************** function i2_Pulse *****************
  7052 ;; Defined at:
  7053 ;;		line 124 in file "../../Desktop/336/the3/the3.c"
  7054 ;; Parameters:    Size  Location     Type
  7055 ;;		None
  7056 ;; Auto vars:     Size  Location     Type
  7057 ;;		None
  7058 ;; Return value:  Size  Location     Type
  7059 ;;                  1    wreg      void 
  7060 ;; Registers used:
  7061 ;;		wreg
  7062 ;; Tracked objects:
  7063 ;;		On entry : 0/0
  7064 ;;		On exit  : 0/0
  7065 ;;		Unchanged: 0/0
  7066 ;; Data sizes:     COMRAM   BANK0   BANK1   BANK2   BANK3   BANK4   BANK5   BANK6   BANK7   BANK8   BANK9  BANK10  BANK1
      +1  BANK12  BANK13  BANK14  BANK15
  7067 ;;      Params:         0       0       0       0       0       0       0       0       0       0       0       0       
      +0       0       0       0       0
  7068 ;;      Locals:         0       0       0       0       0       0       0       0       0       0       0       0       
      +0       0       0       0       0
  7069 ;;      Temps:          0       0       0       0       0       0       0       0       0       0       0       0       
      +0       0       0       0       0
  7070 ;;      Totals:         0       0       0       0       0       0       0       0       0       0       0       0       
      +0       0       0       0       0
  7071 ;;Total ram usage:        0 bytes
  7072 ;; Hardware stack levels used:    1
  7073 ;; This function calls:
  7074 ;;		Nothing
  7075 ;; This function is called by:
  7076 ;;		i2_SendBusContents
  7077 ;; This function uses a non-reentrant model
  7078 ;;
  7079                           
  7080                           	psect	text23
  7081  00382A                     __ptext23:
  7082                           	callstack 0
  7083  00382A                     i2_Pulse:
  7084                           	callstack 18
  7085  00382A                     
  7086                           ;../../Desktop/336/the3/the3.c: 125:     _delay((unsigned long)((300)*(40000000/4000000.
      +                          0)));
  7087  00382A  8A81               	bsf	129,5,c	;volatile
  7088  00382C                     
  7089                           ;../../Desktop/336/the3/the3.c: 126:     PORTD = 0x30;
  7090  00382C  0E64               	movlw	100
  7091  00382E                     i2u373_47:
  7092  00382E  2EE8               	decfsz	wreg,f,c
  7093  003830  D7FE               	bra	i2u373_47
  7094  003832                     
  7095                           ;../../Desktop/336/the3/the3.c: 127:     Pulse();
  7096  003832  9A81               	bcf	129,5,c	;volatile
  7097                           
  7098                           ;../../Desktop/336/the3/the3.c: 128: 
  7099  003834  0E64               	movlw	100
  7100  003836                     i2u374_47:
  7101  003836  2EE8               	decfsz	wreg,f,c
  7102  003838  D7FE               	bra	i2u374_47
  7103  00383A  0012               	return		;funcret
  7104  00383C                     __end_ofi2_Pulse:
  7105                           	callstack 0
  7106                           
  7107                           	psect	rparam
  7108  0000                     
  7109                           	psect	temp
  7110  00005C                     btemp:
  7111                           	callstack 0
  7112  00005C                     	ds	1
  7113  0000                     int$flags	set	btemp
  7114  0000                     wtemp8	set	btemp+1
  7115  0000                     ttemp5	set	btemp+1
  7116  0000                     ttemp6	set	btemp+4
  7117  0000                     ttemp7	set	btemp+8
  7118                           
  7119                           	psect	idloc
  7120                           
  7121                           ;Config register IDLOC0 @ 0x200000
  7122                           ;	unspecified, using default values
  7123  200000                     	org	2097152
  7124  200000  FF                 	db	255
  7125                           
  7126                           ;Config register IDLOC1 @ 0x200001
  7127                           ;	unspecified, using default values
  7128  200001                     	org	2097153
  7129  200001  FF                 	db	255
  7130                           
  7131                           ;Config register IDLOC2 @ 0x200002
  7132                           ;	unspecified, using default values
  7133  200002                     	org	2097154
  7134  200002  FF                 	db	255
  7135                           
  7136                           ;Config register IDLOC3 @ 0x200003
  7137                           ;	unspecified, using default values
  7138  200003                     	org	2097155
  7139  200003  FF                 	db	255
  7140                           
  7141                           ;Config register IDLOC4 @ 0x200004
  7142                           ;	unspecified, using default values
  7143  200004                     	org	2097156
  7144  200004  FF                 	db	255
  7145                           
  7146                           ;Config register IDLOC5 @ 0x200005
  7147                           ;	unspecified, using default values
  7148  200005                     	org	2097157
  7149  200005  FF                 	db	255
  7150                           
  7151                           ;Config register IDLOC6 @ 0x200006
  7152                           ;	unspecified, using default values
  7153  200006                     	org	2097158
  7154  200006  FF                 	db	255
  7155                           
  7156                           ;Config register IDLOC7 @ 0x200007
  7157                           ;	unspecified, using default values
  7158  200007                     	org	2097159
  7159  200007  FF                 	db	255
  7160                           
  7161                           	psect	config
  7162                           
  7163                           ; Padding undefined space
  7164  300000                     	org	3145728
  7165  300000  FF                 	db	255
  7166                           
  7167                           ;Config register CONFIG1H @ 0x300001
  7168                           ;	Oscillator Selection bits
  7169                           ;	OSC = HSPLL, HS oscillator, PLL enabled (Clock Frequency = 4 x FOSC1)
  7170                           ;	Fail-Safe Clock Monitor Enable bit
  7171                           ;	FCMEN = OFF, Fail-Safe Clock Monitor disabled
  7172                           ;	Internal/External Oscillator Switchover bit
  7173                           ;	IESO = OFF, Two-Speed Start-up disabled
  7174  300001                     	org	3145729
  7175  300001  06                 	db	6
  7176                           
  7177                           ;Config register CONFIG2L @ 0x300002
  7178                           ;	Power-up Timer Enable bit
  7179                           ;	PWRT = OFF, PWRT disabled
  7180                           ;	Brown-out Reset Enable bits
  7181                           ;	BOREN = OFF, Brown-out Reset disabled in hardware and software
  7182                           ;	Brown-out Voltage bits
  7183                           ;	BORV = 3, Minimum setting
  7184  300002                     	org	3145730
  7185  300002  19                 	db	25
  7186                           
  7187                           ;Config register CONFIG2H @ 0x300003
  7188                           ;	Watchdog Timer
  7189                           ;	WDT = OFF, WDT disabled (control is placed on the SWDTEN bit)
  7190                           ;	Watchdog Timer Postscale Select bits
  7191                           ;	WDTPS = 32768, 1:32768
  7192  300003                     	org	3145731
  7193  300003  1E                 	db	30
  7194                           
  7195                           ;Config register CONFIG3L @ 0x300004
  7196                           ;	Processor Data Memory Mode Select bits
  7197                           ;	MODE = MC, Microcontroller mode
  7198                           ;	Address Bus Width Select bits
  7199                           ;	ADDRBW = ADDR20BIT, 20-bit Address Bus
  7200                           ;	Data Bus Width Select bit
  7201                           ;	DATABW = DATA16BIT, 16-bit External Bus mode
  7202                           ;	External Bus Data Wait Enable bit
  7203                           ;	WAIT = OFF, Wait selections are unavailable for table reads and table writes
  7204  300004                     	org	3145732
  7205  300004  F3                 	db	243
  7206                           
  7207                           ;Config register CONFIG3H @ 0x300005
  7208                           ;	CCP2 MUX bit
  7209                           ;	CCP2MX = PORTC, ECCP2 input/output is multiplexed with RC1
  7210                           ;	ECCP MUX bit
  7211                           ;	ECCPMX = PORTE, ECCP1/3 (P1B/P1C/P3B/P3C) are multiplexed onto RE6, RE5, RE4 and RE3 r
      +                          espectively
  7212                           ;	Low-Power Timer1 Oscillator Enable bit
  7213                           ;	LPT1OSC = OFF, Timer1 configured for higher power operation
  7214                           ;	MCLR Pin Enable bit
  7215                           ;	MCLRE = ON, MCLR pin enabled; RG5 input pin disabled
  7216  300005                     	org	3145733
  7217  300005  83                 	db	131
  7218                           
  7219                           ;Config register CONFIG4L @ 0x300006
  7220                           ;	Stack Full/Underflow Reset Enable bit
  7221                           ;	STVREN = ON, Stack full/underflow will cause Reset
  7222                           ;	Single-Supply ICSP Enable bit
  7223                           ;	LVP = OFF, Single-Supply ICSP disabled
  7224                           ;	Boot Block Size Select bits
  7225                           ;	BBSIZ = BB2K, 1K word (2 Kbytes) Boot Block size
  7226                           ;	Extended Instruction Set Enable bit
  7227                           ;	XINST = OFF, Instruction set extension and Indexed Addressing mode disabled (Legacy mo
      +                          de)
  7228                           ;	Background Debugger Enable bit
  7229                           ;	DEBUG = ON, Background debugger enabled, RB6 and RB7 are dedicated to In-Circuit Debug
  7230  300006                     	org	3145734
  7231  300006  01                 	db	1
  7232                           
  7233                           ; Padding undefined space
  7234  300007                     	org	3145735
  7235  300007  FF                 	db	255
  7236                           
  7237                           ;Config register CONFIG5L @ 0x300008
  7238                           ;	Code Protection bit Block 0
  7239                           ;	CP0 = OFF, Block 0 (000800, 001000 or 002000-003FFFh) not code-protected
  7240                           ;	Code Protection bit Block 1
  7241                           ;	CP1 = OFF, Block 1 (004000-007FFFh) not code-protected
  7242                           ;	Code Protection bit Block 2
  7243                           ;	CP2 = OFF, Block 2 (008000-00BFFFh) not code-protected
  7244                           ;	Code Protection bit Block 3
  7245                           ;	CP3 = OFF, Block 3 (00C000-00FFFFh) not code-protected
  7246                           ;	Code Protection bit Block 4
  7247                           ;	CP4 = OFF, Block 4 (010000-013FFFh) not code-protected
  7248                           ;	Code Protection bit Block 5
  7249                           ;	CP5 = OFF, Block 5 (014000-017FFFh) not code-protected
  7250                           ;	Code Protection bit Block 6
  7251                           ;	CP6 = OFF, Block 6 (01BFFF-018000h) not code-protected
  7252                           ;	Code Protection bit Block 7
  7253                           ;	CP7 = OFF, Block 7 (01C000-01FFFFh) not code-protected
  7254  300008                     	org	3145736
  7255  300008  FF                 	db	255
  7256                           
  7257                           ;Config register CONFIG5H @ 0x300009
  7258                           ;	Boot Block Code Protection bit
  7259                           ;	CPB = OFF, Boot Block (000000-0007FFh) not code-protected
  7260                           ;	Data EEPROM Code Protection bit
  7261                           ;	CPD = OFF, Data EEPROM not code-protected
  7262  300009                     	org	3145737
  7263  300009  C0                 	db	192
  7264                           
  7265                           ;Config register CONFIG6L @ 0x30000A
  7266                           ;	Write Protection bit Block 0
  7267                           ;	WRT0 = OFF, Block 0 (000800, 001000 or 002000-003FFFh) not write-protected
  7268                           ;	Write Protection bit Block 1
  7269                           ;	WRT1 = OFF, Block 1 (004000-007FFFh) not write-protected
  7270                           ;	Write Protection bit Block 2
  7271                           ;	WRT2 = OFF, Block 2 (008000-00BFFFh) not write-protected
  7272                           ;	Write Protection bit Block 3
  7273                           ;	WRT3 = OFF, Block 3 (00C000-00FFFFh) not write-protected
  7274                           ;	Write Protection bit Block 4
  7275                           ;	WRT4 = OFF, Block 4 (010000-013FFFh) not write-protected
  7276                           ;	Write Protection bit Block 5
  7277                           ;	WRT5 = OFF, Block 5 (014000-017FFFh) not write-protected
  7278                           ;	Write Protection bit Block 6
  7279                           ;	WRT6 = OFF, Block 6 (01BFFF-018000h) not write-protected
  7280                           ;	Write Protection bit Block 7
  7281                           ;	WRT7 = OFF, Block 7 (01C000-01FFFFh) not write-protected
  7282  30000A                     	org	3145738
  7283  30000A  FF                 	db	255
  7284                           
  7285                           ;Config register CONFIG6H @ 0x30000B
  7286                           ;	Configuration Register Write Protection bit
  7287                           ;	WRTC = OFF, Configuration registers (300000-3000FFh) not write-protected
  7288                           ;	Boot Block Write Protection bit
  7289                           ;	WRTB = OFF, Boot Block (000000-007FFF, 000FFF or 001FFFh) not write-protected
  7290                           ;	Data EEPROM Write Protection bit
  7291                           ;	WRTD = OFF, Data EEPROM not write-protected
  7292  30000B                     	org	3145739
  7293  30000B  E0                 	db	224
  7294                           
  7295                           ;Config register CONFIG7L @ 0x30000C
  7296                           ;	Table Read Protection bit Block 0
  7297                           ;	EBTR0 = OFF, Block 0 (000800, 001000 or 002000-003FFFh) not protected from table reads
      +                           executed in other blocks
  7298                           ;	Table Read Protection bit Block 1
  7299                           ;	EBTR1 = OFF, Block 1 (004000-007FFFh) not protected from table reads executed in other
      +                           blocks
  7300                           ;	Table Read Protection bit Block 2
  7301                           ;	EBTR2 = OFF, Block 2 (008000-00BFFFh) not protected from table reads executed in other
      +                           blocks
  7302                           ;	Table Read Protection bit Block 3
  7303                           ;	EBTR3 = OFF, Block 3 (00C000-00FFFFh) not protected from table reads executed in other
      +                           blocks
  7304                           ;	Table Read Protection bit Block 4
  7305                           ;	EBTR4 = OFF, Block 4 (010000-013FFFh) not protected from table reads executed in other
      +                           blocks
  7306                           ;	Table Read Protection bit Block 5
  7307                           ;	EBTR5 = OFF, Block 5 (014000-017FFFh) not protected from table reads executed in other
      +                           blocks
  7308                           ;	Table Read Protection bit Block 6
  7309                           ;	EBTR6 = OFF, Block 6 (018000-01BFFFh) not protected from table reads executed in other
      +                           blocks
  7310                           ;	Table Read Protection bit Block 7
  7311                           ;	EBTR7 = OFF, Block 7 (01C000-01FFFFh) not protected from table reads executed in other
      +                           blocks
  7312  30000C                     	org	3145740
  7313  30000C  FF                 	db	255
  7314                           
  7315                           ;Config register CONFIG7H @ 0x30000D
  7316                           ;	Boot Block Table Read Protection bit
  7317                           ;	EBTRB = OFF, Boot Block (000000-007FFF, 000FFF or 001FFFh) not protected from table re
      +                          ads executed in other blocks
  7318  30000D                     	org	3145741
  7319  30000D  40                 	db	64
  7320                           tosu	equ	0xFFF
  7321                           tosh	equ	0xFFE
  7322                           tosl	equ	0xFFD
  7323                           stkptr	equ	0xFFC
  7324                           pclatu	equ	0xFFB
  7325                           pclath	equ	0xFFA
  7326                           pcl	equ	0xFF9
  7327                           tblptru	equ	0xFF8
  7328                           tblptrh	equ	0xFF7
  7329                           tblptrl	equ	0xFF6
  7330                           tablat	equ	0xFF5
  7331                           prodh	equ	0xFF4
  7332                           prodl	equ	0xFF3
  7333                           indf0	equ	0xFEF
  7334                           postinc0	equ	0xFEE
  7335                           postdec0	equ	0xFED
  7336                           preinc0	equ	0xFEC
  7337                           plusw0	equ	0xFEB
  7338                           fsr0h	equ	0xFEA
  7339                           fsr0l	equ	0xFE9
  7340                           wreg	equ	0xFE8
  7341                           indf1	equ	0xFE7
  7342                           postinc1	equ	0xFE6
  7343                           postdec1	equ	0xFE5
  7344                           preinc1	equ	0xFE4
  7345                           plusw1	equ	0xFE3
  7346                           fsr1h	equ	0xFE2
  7347                           fsr1l	equ	0xFE1
  7348                           bsr	equ	0xFE0
  7349                           indf2	equ	0xFDF
  7350                           postinc2	equ	0xFDE
  7351                           postdec2	equ	0xFDD
  7352                           preinc2	equ	0xFDC
  7353                           plusw2	equ	0xFDB
  7354                           fsr2h	equ	0xFDA
  7355                           fsr2l	equ	0xFD9
  7356                           status	equ	0xFD8

Data Sizes:
    Strings     0
    Constant    24
    Data        58
    BSS         130
    Persistent  0
    Stack       0

Auto Spaces:
    Space          Size  Autos    Used
    COMRAM           94     89      91
    BANK0           160     94     122
    BANK1           256     24     182
    BANK2           256      0       0
    BANK3           256      0       0
    BANK4           256      0       0
    BANK5           256      0       0
    BANK6           256      0       0
    BANK7           256      0       0
    BANK8           256      0       0
    BANK9           256      0       0
    BANK10          256      0       0
    BANK11          256      0       0
    BANK12          256      0       0
    BANK13          256      0       0
    BANK14          256      0       0
    BANK15           96      0       0

Pointer List with Targets:

    None.

Critical Paths under _main in COMRAM

    None.

Critical Paths under _lowPriorityISR in COMRAM

    _seven_segment->___fltol
    _log2f->___fldiv
    ___flsub->___fladd
    ___fladd->___flmul
    ___fldiv->___flsub
    ___fltol->_log2f

Critical Paths under _highPriorityISR in COMRAM

    _highPriorityISR->i2_SendBusContents

Critical Paths under _main in BANK0

    None.

Critical Paths under _lowPriorityISR in BANK0

    _lowPriorityISR->_seven_segment
    _seven_segment->___fltol
    ___fltol->_log2f

Critical Paths under _highPriorityISR in BANK0

    None.

Critical Paths under _main in BANK1

    _main->_TEM
    _init->_InitLCD
    _InitLCD->_SendBusContents
    _TSM->_SendBusContents
    _CDM->_LAT_to_Arr
    _LAT_to_Arr->_SendBusContents

Critical Paths under _lowPriorityISR in BANK1

    None.

Critical Paths under _highPriorityISR in BANK1

    None.

Critical Paths under _main in BANK2

    None.

Critical Paths under _lowPriorityISR in BANK2

    None.

Critical Paths under _highPriorityISR in BANK2

    None.

Critical Paths under _main in BANK3

    None.

Critical Paths under _lowPriorityISR in BANK3

    None.

Critical Paths under _highPriorityISR in BANK3

    None.

Critical Paths under _main in BANK4

    None.

Critical Paths under _lowPriorityISR in BANK4

    None.

Critical Paths under _highPriorityISR in BANK4

    None.

Critical Paths under _main in BANK5

    None.

Critical Paths under _lowPriorityISR in BANK5

    None.

Critical Paths under _highPriorityISR in BANK5

    None.

Critical Paths under _main in BANK6

    None.

Critical Paths under _lowPriorityISR in BANK6

    None.

Critical Paths under _highPriorityISR in BANK6

    None.

Critical Paths under _main in BANK7

    None.

Critical Paths under _lowPriorityISR in BANK7

    None.

Critical Paths under _highPriorityISR in BANK7

    None.

Critical Paths under _main in BANK8

    None.

Critical Paths under _lowPriorityISR in BANK8

    None.

Critical Paths under _highPriorityISR in BANK8

    None.

Critical Paths under _main in BANK9

    None.

Critical Paths under _lowPriorityISR in BANK9

    None.

Critical Paths under _highPriorityISR in BANK9

    None.

Critical Paths under _main in BANK10

    None.

Critical Paths under _lowPriorityISR in BANK10

    None.

Critical Paths under _highPriorityISR in BANK10

    None.

Critical Paths under _main in BANK11

    None.

Critical Paths under _lowPriorityISR in BANK11

    None.

Critical Paths under _highPriorityISR in BANK11

    None.

Critical Paths under _main in BANK12

    None.

Critical Paths under _lowPriorityISR in BANK12

    None.

Critical Paths under _highPriorityISR in BANK12

    None.

Critical Paths under _main in BANK13

    None.

Critical Paths under _lowPriorityISR in BANK13

    None.

Critical Paths under _highPriorityISR in BANK13

    None.

Critical Paths under _main in BANK14

    None.

Critical Paths under _lowPriorityISR in BANK14

    None.

Critical Paths under _highPriorityISR in BANK14

    None.

Critical Paths under _main in BANK15

    None.

Critical Paths under _lowPriorityISR in BANK15

    None.

Critical Paths under _highPriorityISR in BANK15

    None.

Call Graph Tables:

 ---------------------------------------------------------------------------------
 (Depth) Function   	        Calls       Base Space   Used Autos Params    Refs
 ---------------------------------------------------------------------------------
 (0) _main                                                 2     2      0    2580
                                             22 BANK1      2     2      0
                                _TEM
                               _init
 ---------------------------------------------------------------------------------
 (1) _init                                                 0     0      0      44
                            _InitLCD
                           _adc_init
                          _tmr1_init
 ---------------------------------------------------------------------------------
 (2) _tmr1_init                                            0     0      0       0
 ---------------------------------------------------------------------------------
 (2) _adc_init                                             0     0      0       0
 ---------------------------------------------------------------------------------
 (2) _InitLCD                                              2     2      0      44
                                              1 BANK1      2     2      0
                              _Pulse
                    _SendBusContents
 ---------------------------------------------------------------------------------
 (1) _TEM                                                  9     9      0    2446
                                             13 BANK1      9     9      0
                                _CDM
                    _SendBusContents
                                _TSM
 ---------------------------------------------------------------------------------
 (2) _TSM                                                  9     9      0     358
                                              1 BANK1      9     9      0
                    _SendBusContents
 ---------------------------------------------------------------------------------
 (2) _CDM                                                  0     0      0    1944
                         _LAT_to_Arr
                            ___awdiv
 ---------------------------------------------------------------------------------
 (3) ___awdiv                                              8     4      4     452
                                              0 BANK1      8     4      4
 ---------------------------------------------------------------------------------
 (3) _LAT_to_Arr                                          20    20      0    1492
                                              1 BANK1     12    12      0
                    _SendBusContents
 ---------------------------------------------------------------------------------
 (3) _SendBusContents                                      1     1      0      44
                                              0 BANK1      1     1      0
                              _Pulse
 ---------------------------------------------------------------------------------
 (4) _Pulse                                                0     0      0       0
 ---------------------------------------------------------------------------------
 Estimated maximum stack depth 4
 ---------------------------------------------------------------------------------
 (Depth) Function   	        Calls       Base Space   Used Autos Params    Refs
 ---------------------------------------------------------------------------------
 (6) _lowPriorityISR                                       7     7      0   16888
                                             87 BANK0      7     7      0
                      _seven_segment
 ---------------------------------------------------------------------------------
 (7) _seven_segment                                        5     5      0   16888
                                             82 BANK0      5     5      0
                            ___fltol
                           ___xxtofl
                              _log2f
 ---------------------------------------------------------------------------------
 (8) _log2f                                               84    80      4   15953
                                             77 COMRAM    10     6      4
                                              0 BANK0     74    74      0
                            ___fladd
                            ___fldiv
                            ___flmul
                            ___flsub
                           ___xxtofl
 ---------------------------------------------------------------------------------
 (9) ___xxtofl                                            14    10      4     474
                                              3 COMRAM    14    10      4
 ---------------------------------------------------------------------------------
 (9) ___flsub                                              8     0      8    4713
                                             44 COMRAM     8     0      8
                            ___fladd
 ---------------------------------------------------------------------------------
 (10) ___fladd                                            16     8      8    3934
                                             28 COMRAM    16     8      8
                            ___flmul (ARG)
                           ___xxtofl (ARG)
 ---------------------------------------------------------------------------------
 (9) ___flmul                                             25    17      8    3720
                                              3 COMRAM    25    17      8
 ---------------------------------------------------------------------------------
 (9) ___fldiv                                             25    17      8    1703
                                             52 COMRAM    25    17      8
                            ___fladd (ARG)
                            ___flmul (ARG)
                            ___flsub (ARG)
 ---------------------------------------------------------------------------------
 (8) ___fltol                                             10     6      4     427
                                             87 COMRAM     2     2      0
                                             74 BANK0      8     4      4
                           ___xxtofl (ARG)
                              _log2f (ARG)
 ---------------------------------------------------------------------------------
 Estimated maximum stack depth 10
 ---------------------------------------------------------------------------------
 (Depth) Function   	        Calls       Base Space   Used Autos Params    Refs
 ---------------------------------------------------------------------------------
 (11) _highPriorityISR                                     2     2      0      44
                                              1 COMRAM     2     2      0
                  i2_SendBusContents
 ---------------------------------------------------------------------------------
 (12) i2_SendBusContents                                   1     1      0      44
                                              0 COMRAM     1     1      0
                            i2_Pulse
 ---------------------------------------------------------------------------------
 (13) i2_Pulse                                             0     0      0       0
 ---------------------------------------------------------------------------------
 Estimated maximum stack depth 13
 ---------------------------------------------------------------------------------

 Call Graph Graphs:

 _main (ROOT)
   _TEM
     _CDM
       _LAT_to_Arr
         _SendBusContents
           _Pulse
       ___awdiv
     _SendBusContents
       _Pulse
     _TSM
       _SendBusContents
         _Pulse
   _init
     _InitLCD
       _Pulse
       _SendBusContents
         _Pulse
     _adc_init
     _tmr1_init

 _lowPriorityISR (ROOT)
   _seven_segment
     ___fltol
       ___xxtofl (ARG)
       _log2f (ARG)
         ___fladd
           ___flmul (ARG)
           ___xxtofl (ARG)
         ___fldiv
           ___fladd (ARG)
             ___flmul (ARG)
             ___xxtofl (ARG)
           ___flmul (ARG)
           ___flsub (ARG)
             ___fladd
               ___flmul (ARG)
               ___xxtofl (ARG)
         ___flmul
         ___flsub
           ___fladd
             ___flmul (ARG)
             ___xxtofl (ARG)
         ___xxtofl
     ___xxtofl
     _log2f
       ___fladd
         ___flmul (ARG)
         ___xxtofl (ARG)
       ___fldiv
         ___fladd (ARG)
           ___flmul (ARG)
           ___xxtofl (ARG)
         ___flmul (ARG)
         ___flsub (ARG)
           ___fladd
             ___flmul (ARG)
             ___xxtofl (ARG)
       ___flmul
       ___flsub
         ___fladd
           ___flmul (ARG)
           ___xxtofl (ARG)
       ___xxtofl

 _highPriorityISR (ROOT)
   i2_SendBusContents
     i2_Pulse

 Address spaces:
Name               Size   Autos  Total    Cost      Usage
BIGRAM             F5F      0       0      37        0.0%
EEDATA             400      0       0       0        0.0%
BITBANK14          100      0       0      33        0.0%
BANK14             100      0       0      34        0.0%
BITBANK13          100      0       0      30        0.0%
BANK13             100      0       0      31        0.0%
BITBANK12          100      0       0      28        0.0%
BANK12             100      0       0      29        0.0%
BITBANK11          100      0       0      26        0.0%
BANK11             100      0       0      27        0.0%
BITBANK10          100      0       0      24        0.0%
BANK10             100      0       0      25        0.0%
BITBANK9           100      0       0      22        0.0%
BANK9              100      0       0      23        0.0%
BITBANK8           100      0       0      20        0.0%
BANK8              100      0       0      21        0.0%
BITBANK7           100      0       0      18        0.0%
BANK7              100      0       0      19        0.0%
BITBANK6           100      0       0      16        0.0%
BANK6              100      0       0      17        0.0%
BITBANK5           100      0       0      14        0.0%
BANK5              100      0       0      15        0.0%
BITBANK4           100      0       0      12        0.0%
BANK4              100      0       0      13        0.0%
BITBANK3           100      0       0      10        0.0%
BANK3              100      0       0      11        0.0%
BITBANK2           100      0       0       8        0.0%
BANK2              100      0       0       9        0.0%
BITBANK1           100      0       0       6        0.0%
BANK1              100     18      B6       7       71.1%
BITBANK0            A0      0       0       4        0.0%
BANK0               A0     5E      7A       5       76.2%
BITBANK15           60      0       0      35        0.0%
BANK15              60      0       0      36        0.0%
BITCOMRAM           5E      0       0       0        0.0%
COMRAM              5E     59      5B       1       96.8%
BITSFR               0      0       0     200        0.0%
SFR                  0      0       0     200        0.0%
STACK                0      0       0       2        0.0%
NULL                 0      0       0       0        0.0%
ABS                  0      0     18B      32        0.0%
DATA                 0      0     18B       3        0.0%
CODE                 0      0       0       0        0.0%


Microchip Technology PIC18 Macro Assembler V2.30 build 20200825195618 
Symbol Table                                                                                   Tue Jun  7 19:23:20 2022

              ___fldiv@aexp 004D                ___fldiv@bexp 004C                ___fldiv@sign 0045  
           ??_seven_segment 00B2                ___awdiv@sign 01A3                          bsr 000FE0  
                       l202 2C86                         l132 3804                         l141 3790  
                       l221 2DA8                         l205 2CBA                         l135 3828  
                       l231 2E26                         l144 248A                         l216 2D50  
                       l208 2CF0                         l152 28F8                         l145 24FA  
                       l241 2F8E                         l129 3848                         l146 254A  
                       l226 2DE8                         l162 2962                         l154 2922  
                       l138 35F4                         l171 2A5E                         l172 2A00  
                       l149 3760                         l246 300A                         l158 2942  
                       l167 29B0                         l255 364E                         l176 2AC0  
                       l193 2C34                         l177 2A6C                         l194 2BEE  
                       l197 2E5A                         l199 2C42                         l493 3570  
                       _CDM 2BB2                         _TEM 28E6                         _Lg1 100D  
                       _Lg2 1009                         _Lg3 1005                         _Lg4 1001  
                       _TSM 2E5C                         _col 00D8    __size_of_SendBusContents 0030  
                       _row 00CE                         wreg 000FE8                ___flmul@aexp 0015  
              ___flmul@bexp 0016                ___flmul@sign 0010                ___flmul@temp 001B  
              ___flmul@prod 0017                        ?_CDM 0001                        ?_TEM 0001  
                      ?_TSM 0001                ___fltol@exp1 0059                        l3111 2C82  
                      l2241 3820                        l3121 2CE2                        l3113 2C98  
                      l3105 2C50                        l3201 2ED0                        l3041 37E4  
                      l2251 378C                        l2243 3766                        l3131 2D34  
                      l3123 2CEC                        l3115 2CAC                        l3107 2C64  
                      l3203 2ED6                        l3051 35A4                        l3043 3572  
                      l2237 3818                        l2245 3776                        l2501 2302  
                      l3141 2D7C                        l3133 2D3E                        l3125 2D04  
                      l3117 2CB6                        l3109 2C78                        l3221 2F4A  
                      l3205 2EDC                        l3061 35DC                        l3053 35AC  
                      l3045 358C                        l2239 381A                        l2247 377A  
                      l2511 2352                        l2503 2308                        l3151 2DDA  
                      l3143 2D9A                        l3127 2D18                        l3119 2CCE  
                      l3135 2D42                        l3071 2BB2                        l3223 2F66  
                      l3215 2EF0                        l3207 2EDE                        l3063 35E0  
                      l3055 35BE                        l3047 3590                        l3039 383C  
                      l2249 3780                        l2521 23A4                        l2513 235A  
                      l2505 2340                        l3129 2D1E                        l3081 2BE0  
                      l3073 2BC6                        l3241 3016                        l3225 2F6C  
                      l3217 2F0E                        l3209 2EE4                        l3065 35E2  
                      l3057 35C2                        l3049 3594                        l3321 3730  
                      l2531 23C6                        l2523 23AA                        l2515 2360  
                      l2507 2346                        l3163 2E34                        l3155 2DF6  
                      l3147 2DB6                        l3139 2D5E                        l3091 2C16  
                      l3075 2BC8                        l3235 2FA2                        l3227 2F72  
                      l3219 2F24                        l3171 2E6E                        l3411 2AD4  
                      l3403 2A7A                        l3067 35E8                        l3059 35C6  
                      l3331 3740                        l3323 3734                        l2541 2418  
                      l2533 23CC                        l2525 23B2                        l2517 2368  
                      l2509 234C                        l2461 21D2                        l3165 2E52  
                      l3157 2E12                        l3149 2DD4                        l3093 2C1A  
                      l3085 2BFC                        l3077 2BD8                        l3237 2FEA  
                      l3229 2F9A                        l3181 2E90                        l3173 2E70  
                      l3421 2B20                        l3413 2AE6                        l3405 2A8C  
                      l3069 35EE                        l3341 3754                        l3333 3744  
                      l3325 3736                        l3317 3724                        l3501 3604  
                      l2551 2438                        l2543 241E                        l2535 23D2  
                      l2527 23B8                        l2519 236E                        l2471 21F4  
                      l2463 21DA                        l2455 2166                        l3159 2E18  
                      l3095 2C1E                        l3087 2C0E                        l3079 2BDE  
                      l3239 2FEE                        l3191 2EB2                        l3183 2EA2  
                      l3175 2E76                        l3167 2E5C                        l3431 2B54  
                      l3423 2B22                        l3415 2AEE                        l3407 2A92  
                      l3351 28FE                        l3343 3758                        l3335 3748  
                      l3327 373A                        l3319 372C                        l3503 362E  
                      l2553 2470                        l2545 2424                        l2537 240A  
                      l2529 23C0                        l2481 2244                        l2473 222A  
                      l2465 21E0                        l2457 219C                        l3097 2C22  
                      l3089 2C12                        l3193 2EB8                        l3185 2EA4  
                      l3177 2E88                        l3169 2E6C                        l3441 2B82  
                      l3433 2B5C                        l3425 2B28                        l3417 2AF0  
                      l3409 2AAC                        l3353 290C                        l3345 375C  
                      l3337 374C                        l3329 373C                        l3505 3632  
                      l2571 2504                        l2563 248C                        l2555 2472  
                      l2547 242A                        l2539 2410                        l2491 22E2  
                      l2483 224A                        l2475 2230                        l2467 21E8  
                      l2459 21CC                        l3099 2C26                        l3195 2EBE  
                      l3187 2EAA                        l3179 2E8A                        l3443 2B9E  
                      l3435 2B5E                        l3419 2B02                        l3427 2B2E  
                      l3371 2982                        l3363 2950                        l3347 28E6  
                      l3339 3750                        l3507 3664                        l2573 250E  
                      l2565 24D8                        l2557 2480                        l2549 2432  
                      l2493 22E8                        l2485 2250                        l2477 2238  
                      l2469 21EE                        l3197 2EC4                        l3189 2EAC  
                      l3445 2BA0                        l3437 2B72                        l3429 2B42  
                      l3381 29BE                        l3373 2986                        l3365 2954  
                      l3357 2930                        l3349 28FC                        l2575 2542  
                      l2567 24DE                        l2495 22EE                        l2487 2256  
                      l2479 223E                        l3199 2ECA                        l3447 2BA6  
                      l3439 2B7C                        l3383 29D0                        l3375 299A  
                      l3359 2934                        l2577 2544                        l2569 24FC  
                      l2497 22F4                        l2489 22B2                        l3393 2A0E  
                      l3385 29D6                        l3369 2970                        l3377 29A2  
                      l2499 22FA                        l3395 2A20                        l3387 29EA  
                      l2861 34C8                        l3397 2A24                        l3389 29F2  
                      l3493 35F6                        l2871 34EE                        l2863 34CC  
                      l2855 34AC                        l3399 2A5A                        l3495 35FA  
                      l2881 3524                        l2873 3500                        l2865 34DA  
                      l2857 34B2                        l2883 353A                        l2875 3508  
                      l2891 3550                        l2867 34E2                        l2859 34C0  
                      l2893 3560                        l2885 3542                        l2877 3510  
                      l2869 34E6                        l2895 3568                        l2887 3544  
                      l2879 351E                        l2889 354A                        TSM@i 01A4  
                      u3000 2DA8                        u3001 2DA4                        u3010 2DB6  
                      u3011 2DB2                        u3020 2DD4                        u3100 2F4A  
                      u3021 2DD0                        u3101 2F46                        _LATA 000F89  
                      u2150 24FA                        u3030 2DE8                        u3110 2F8E  
                      _LATB 000F8A                        u2151 24F6                        u3031 2DE4  
                      u3111 2F8A                        _LATC 000F8B                        u3040 2DF6  
                      u3120 300A                        u3200 290C                        _LATD 000F8C  
                      u3041 2DF2                        u3121 3006                        u3201 2908  
                      _LATE 000F8D                        u3050 2E12                        u3210 2922  
                      u3051 2E0E                        u3211 291E                        u3060 2E26  
                      u3300 29EA                        u3220 2930                        _LATH 000F90  
                      u3061 2E22                        u3301 29E6                        u3221 292C  
                      u3070 2E34                        u3310 2A00                        u3230 2942  
                      _LATJ 000F91                        u3071 2E30                        u3311 29FC  
                      u3231 293E                        u2600 3500                        u3080 2E52  
                      u3400 2B54                        u3320 2A0E                        u3240 2950  
                      u2601 34FC                        u3081 2E4E                        u3401 2B50  
                      u3321 2A0A                        u3241 294C                        u2610 351E  
                      u3090 2F0E                        u3410 2B72                        u3330 2A5A  
                      u3250 2962                        u2611 351A                        u3091 2F0A  
                      u3411 2B6E                        u3331 2A56                        u3251 295E  
                      u2620 353A                        u3340 2A6C                        u3260 2970  
                      u3500 364E                        u2621 3536                        u3341 2A68  
                      u3261 296C                        u3501 364A                        u2630 3560  
                      u3350 2A7A                        u3270 299A                        u2631 355C  
                      u3351 2A76                        u3271 2996                        u3360 2AAC  
                      u3280 29B0                        u3361 2AA8                        u3281 29AC  
                      u3370 2AD4                        u3290 29BE                        u3371 2AD0  
                      u3291 29BA                        u2580 34C0                        u2900 2C98  
                      u3380 2AE6                        u2581 34BC                        u2901 2C94  
                      u3381 2AE2                        u2590 34DA                        u2910 2CAC  
                      u2830 2BD8                        u3390 2B42                        u2591 34D6  
                      u2911 2CA8                        u2831 2BD4                        u3391 2B3E  
                      u3607 359C                        u2920 2CCE                        u2840 2BEE  
                      u2921 2CCA                        u2841 2BEA                        u3617 35B4  
                      u2930 2CE2                        u2850 2BFC                        u2931 2CDE  
                      u2851 2BF8                        u3627 35CE                        u2940 2D04  
                      u2860 2C42                        u2941 2D00                        u2861 2C3E  
                      u3637 2B2A                        u2950 2D18                        u2870 2C50  
                      u2951 2D14                        u2871 2C4C                        u3647 2BA8  
                      u2960 2D34                        u2880 2C64                        u2961 2D30  
                      u2881 2C60                        u3657 2E7E                        u2970 2D50  
                      u2890 2C78                        u2971 2D4C                        u2891 2C74  
                      u3667 2E98                        u2980 2D5E                        u2981 2D5A  
                      u3677 3022                        u3597 357E                        u2990 2D7C  
                      u3687 381C                        u2991 2D78                        u3697 3824  
                      _flag 0170                 ?_LAT_to_Arr 0001                        _main 35F6  
                      _init 3724                        fsr1h 000FE2                        fsr2h 000FDA  
                      indf1 000FE7                        indf2 000FDF                        fsr1l 000FE1  
                      fsr2l 000FD9                        btemp 005C             __end_ofi2_Pulse 383C  
                      prodh 000FF4                        prodl 000FF3                        start 0068  
           ___fldiv@new_exp 0046                ___param_bank 000000             __end_of_InitLCD 35F6  
                     ??_CDM 01AB                       ??_TEM 01AB                       ??_TSM 019F  
             ___fltol@sign1 0058             __end_of___fladd 1D3C                       ?_main 0001  
                     ?_init 0001             __end_of___fldiv 28E6             __end_of___awdiv 3572  
           __end_of___flmul 2166             __end_of___flsub 3724             __end_of___fltol 32F2  
           ___awdiv@divisor 01A0                       _T1CON 000FCD                       i1l123 0048  
                     i1l126 34AA                       i2l111 335C                       i2l115 33A8  
                     i2l141 37BA                       i2l117 33D0                       i2l135 383A  
                     i1l559 32F0                       i1l807 1B84                       i1l816 1C54  
                     i1l832 3722                       i1l920 31E8                       i1l817 1C42  
                     i1l931 3180                       i1l844 28E4                       i1l924 3124  
                     i1l917 308C                       i1l846 2744                       i1l790 1A6A  
                     i1l855 278A                       i1l791 1A58                       i1l880 2164  
                     i1l792 1A1E                       i1l857 2802                       i1l849 2708  
                     i1l858 27F0                       i1l883 1FF6                       i1l876 1E00  
                     i1l956 187A                       i1l893 2126                       i1l885 206E  
                     i1l886 205C                       i1l799 1D3A             ___awdiv@counter 01A2  
                     _TMR1H 000FCF                       _TMR1L 000FCE                       _PORTD 000F83  
                     _TRISA 000F92                       _TRISB 000F93                       _TRISC 000F94  
                     _TRISD 000F95                       _TRISE 000F96                       _TRISH 000F99  
                     _TRISJ 000F9A           i2_SendBusContents 3792                       _Pulse 3818  
        ?i2_SendBusContents 0001                       _log2f 101A                       _errno 00D4  
           __end_of_ivln2hi 1019             __end_of_ivln2lo 1015                       main@i 01B4  
                     tablat 000FF5                       ttemp5 005D                       ttemp6 0060  
                     ttemp7 0064                       status 000FD8         ??i2_SendBusContents 0001  
                     wtemp8 005D              _lowPriorityISR 0018             __initialization 3670  
              __end_of_main 3670                __end_of_init 3762                      ??_main 01B4  
                    ??_init 01A1   __end_ofi2_SendBusContents 37BC               __activetblptr 000001  
       __size_of_LAT_to_Arr 03E6                      ?_Pulse 0001                      ?_log2f 004E  
                    _ADCON0 000FC2                      _ADCON1 000FC1                      _ADCON2 000FC0  
                    _ADRESH 000FC4                      _ADRESL 000FC3            ___awdiv@dividend 019E  
                 ??i2_Pulse 0001                      TSM@tmp 01A3           ??_SendBusContents 019E  
  __size_of_highPriorityISR 33CC                      _GODONE 007E11            __end_of_adc_init 3806  
                    i1l3001 1418                      i1l3011 1564                      i1l3003 1470  
                    i1l2301 1980                      i1l3021 1632                      i1l3013 1598  
                    i1l3005 14A4                      i1l2311 1994                      i1l2303 1984  
                    i1l3031 177E                      i1l3023 1666                      i1l3015 15CC  
                    i1l3007 14FC                      i1l2401 1BD8                      i1l2321 19A8  
                    i1l2313 1998                      i1l2305 1988                      i1l3033 17D6  
                    i1l3025 169A                      i1l3017 1600                      i1l3009 1530  
                    i1l2403 1BE6                      i1l2411 1C04                      i1l2323 19AC  
                    i1l2315 199C                      i1l2307 198C                      i1l2331 19BC  
                    i1l3035 182E                      i1l3027 16F2                      i1l3019 1622  
                    i1l2405 1BEE                      i1l2413 1C12                      i1l2341 1A2C  
                    i1l2333 19C0                      i1l2325 19B0                      i1l2317 19A0  
                    i1l2309 1990                      i1l2261 18A8                      i1l2253 187C  
                    i1l3029 1726                      i1l2423 1C64                      i1l2431 1CBA  
                    i1l2415 1C16                      i1l2407 1BF2                      i1l2351 1A56  
                    i1l2343 1A38                      i1l2335 19EA                      i1l2327 19B4  
                    i1l2319 19A4                      i1l2271 18E2                      i1l2263 18B8  
                    i1l2255 1888                      i1l2601 25B8                      i1l2441 1D0C  
                    i1l2433 1CCA                      i1l2425 1C70                      i1l2417 1C24  
                    i1l2409 1C02                      i1l2361 1AAC                      i1l2353 1A78  
                    i1l2345 1A3C                      i1l2337 1A06                      i1l2329 19B8  
                    i1l2281 1910                      i1l2273 18E8                      i1l2265 18C8  
                    i1l2257 1896                      i1l2611 25EE                      i1l2603 25BE  
                    i1l2451 1D2A                      i1l2443 1D12                      i1l2435 1CDA  
                    i1l2427 1C7E                      i1l2419 1C3A                      i1l2371 1AE6  
                    i1l2363 1ABA                      i1l2355 1A88                      i1l2347 1A4A  
                    i1l2339 1A16                      i1l2291 1944                      i1l2283 1912  
                    i1l2275 18FA                      i1l2267 18CA                      i1l2259 1898  
                    i1l2701 28A4                      i1l2621 262E                      i1l2613 25FE  
                    i1l2605 25CC                      i1l2445 1D14                      i1l2437 1CFA  
                    i1l2429 1CB8                      i1l2381 1B52                      i1l2373 1AE8  
                    i1l2365 1AC8                      i1l2349 1A4C                      i1l2285 1922  
                    i1l2293 194C                      i1l2277 18FC                      i1l2269 18D2  
                    i1l3511 3202                      i1l2711 28DA                      i1l2703 28C0  
                    i1l2623 263E                      i1l2631 265E                      i1l2615 2600  
                    i1l2607 25CE                      i1l2447 1D1A                      i1l2439 1CFE  
                    i1l2391 1BAA                      i1l2383 1B54                      i1l2375 1AF2  
                    i1l2367 1AD4                      i1l2359 1A9C                      i1l2295 195C  
                    i1l2287 1932                      i1l2279 1902                      i1l3521 3252  
                    i1l2705 28C4                      i1l2641 269C                      i1l2633 266E  
                    i1l2625 2646                      i1l2609 25DE                      i1l2617 2608  
                    i1l2801 1FDC                      i1l2721 1D48                      i1l2449 1D28  
                    i1l2385 1B64                      i1l2369 1AD8                      i1l2377 1AF8  
                    i1l2297 196E                      i1l2289 1942                      i1l3531 327C  
                    i1l3523 3256                      i1l3515 3216                      i1l2707 28D2  
                    i1l2651 26E4                      i1l2643 26AC                      i1l2635 266E  
                    i1l2627 264A                      i1l2619 2618                      i1l2811 2018  
                    i1l2803 1FE6                      i1l2731 1D88                      i1l2723 1D56  
                    i1l2395 1BBE                      i1l2379 1B1E                      i1l2387 1B74  
                    i1l2299 197C                      i1l3541 32A4                      i1l3533 3286  
                    i1l3525 3264                      i1l3517 3240                      i1l3509 31EA  
                    i1l2709 28D8                      i1l2661 2732                      i1l2653 26F8  
                    i1l2645 26BC                      i1l2581 254C                      i1l2821 208A  
                    i1l2813 2026                      i1l2805 1FF4                      i1l2741 1DB8  
                    i1l2733 1D8E                      i1l2725 1D58                      i1l2397 1BC8  
                    i1l2389 1B9A                      i1l2901 3048                      i1l3543 32B0  
                    i1l3535 3290                      i1l3519 3242                      i1l2671 277A  
                    i1l2663 2742                      i1l2655 2706                      i1l2647 26CC  
                    i1l2639 2682                      i1l2591 2588                      i1l2583 2558  
                    i1l2831 20F4                      i1l2823 2098                      i1l2815 2054  
                    i1l2807 2006                      i1l2751 1DF0                      i1l2743 1DBA  
                    i1l2735 1D9E                      i1l2727 1D68                      i1l2719 1D3C  
                    i1l2399 1BD6                      i1l2911 30C6                      i1l2903 3056  
                    i1l3545 32C0                      i1l2681 27BA                      i1l2673 2788  
                    i1l2665 2754                      i1l2657 2712                      i1l2649 26D4  
                    i1l2593 2598                      i1l2585 2566                      i1l2841 214A  
                    i1l2833 210E                      i1l2825 20C2                      i1l2809 2014  
                    i1l2761 1E40                      i1l2753 1E10                      i1l2745 1DCA  
                    i1l2737 1DA4                      i1l2729 1D78                      i1l2921 311A  
                    i1l2913 30CE                      i1l2905 309C                      i1l3561 33FE  
                    i1l3553 33D4                      i1l3547 32D0                      i1l2691 282C  
                    i1l2683 27E8                      i1l2667 276A                      i1l2675 279A  
                    i1l2659 2730                      i1l2595 259A                      i1l2587 2568  
                    i1l2835 212A                      i1l2843 2150                      i1l2819 207E  
                    i1l2827 20C6                      i1l2771 1E90                      i1l2763 1E4A  
                    i1l2755 1E20                      i1l2747 1DDA                      i1l2739 1DAA  
                    i1l2851 36EE                      i1l2931 3190                      i1l2923 3156  
                    i1l2915 30DA                      i1l2907 30B2                      i1l3571 345A  
                    i1l3563 3402                      i1l3555 33D6                      i1l3549 32E0  
                    i1l2693 2856                      i1l2677 27A8                      i1l2669 2770  
                    i1l2589 2578                      i1l2597 25A2                      i1l2845 2154  
                    i1l2837 213A                      i1l2829 20E0                      i1l2781 1ED2  
                    i1l2773 1E9C                      i1l2765 1E60                      i1l2749 1DEA  
                    i1l2941 31D8                      i1l2933 3194                      i1l2925 3162  
                    i1l2917 310C                      i1l3573 3494                      i1l3565 3406  
                    i1l3557 33DA                      i1l2687 2812                      i1l2695 285A  
                    i1l2679 27AC                      i1l2599 25B2                      i1l2839 2148  
                    i1l2791 1F34                      i1l2783 1EE2                      i1l2775 1EAA  
                    i1l2767 1E6C                      i1l2759 1E34                      i1l2935 31B8  
                    i1l2927 3170                      i1l2919 310E                      i1l2951 106A  
                    i1l3575 34A6                      i1l3567 3418                      i1l3559 33EC  
                    i1l2697 2874                      i1l2689 281E                      i1l2793 1F50  
                    i1l2785 1EFC                      i1l2777 1EB6                      i1l2769 1E84  
                    i1l2849 36DE                      i1l2937 31C8                      i1l2929 318E  
                    i1l2961 1166                      i1l2953 10A6                      i1l2945 101A  
                    i1l3569 3432                      i1l3577 0036                      i1l2699 288A  
                    i1l2795 1F7A                      i1l2787 1F0C                      i1l2779 1EC6  
                    i1l2939 31D6                      i1l2971 1206                      i1l2963 116E  
                    i1l2955 10CE                      i1l2947 104A                      i1l3579 0044  
                    i1l2797 1FB0                      i1l2789 1F28                      i1l2981 1254  
                    i1l2973 1216                      i1l2949 1054                      i1l2799 1FBE  
                    i1l2991 1314                      i1l2983 1270                      i1l2967 11CA  
                    i1l2959 112A                      i1l2975 122A                      i1l2993 1324  
                    i1l2977 1240                      i1l2969 11D2                      i1l2899 3038  
                    i1l2995 1358                      i1l2987 1284                      i1l2997 13B0  
                    i1l2989 1304                      i1l2999 13E4                      i2l3291 3832  
                    i2l3451 37A2                      i2l3453 37A6                      i2l3461 3302  
                    i2l3287 382A                      i2l3455 37AC                      i2l3471 335E  
                    i2l3463 3310                      i2l3289 382C                      i2l3457 37B6  
                    i2l3449 3794                      i2l3481 33A0                      i2l3473 3364  
                    i2l3465 3312                      i2l3483 33AA                      i2l3475 3368  
                    i2l3467 334C                      i2l3459 32F4                      i2l3485 33B0  
                    i2l3469 3354                      i2l3477 3382                      i2l3487 33B6  
                    i2l3479 3398            __end_of___xxtofl 31EA                   ??_InitLCD 019F  
    __end_of_lowPriorityISR 0068                   ??___fladd 0025                   ??___fldiv 003D  
                 ??___awdiv 01A2                   ??___flmul 000C                   ??___flsub 0035  
                 ??___fltol 00AE                      clear_0 36B6                      clear_1 36C2  
          ___awdiv@quotient 01A4                      _result 0172                      log2f@R 0060  
                    log2f@f 00A2                      log2f@k 007C                      log2f@s 008A  
                    log2f@u 009E                      log2f@w 0092                      log2f@x 004E  
                    log2f@z 008E          _seven_segment$1347 00B3                __mediumconst 0000  
                    tblptrh 000FF7                      tblptrl 000FF6                      tblptru 000FF8  
               LAT_to_Arr@i 01A5                ___xxtofl@arg 000E                ___xxtofl@exp 000D  
              ___xxtofl@val 0004                  __accesstop 0060     __end_of__initialization 36CC  
           ?_lowPriorityISR 0001               ___rparam_used 000001                  ___fltol@f1 00AA  
            __pcstackCOMRAM 0001               __end_of_Pulse 382A                __pidataBANK0 3806  
              __pidataBANK1 37BC               __end_of_log2f 187C  __size_ofi2_SendBusContents 002A  
                   ??_Pulse 019E                     ??_log2f 0052                  __pbssBANK0 00D0  
                __pbssBANK1 0100          LAT_to_Arr@a_result 01A7          LAT_to_Arr@b_result 01A8  
        LAT_to_Arr@c_result 01A9                ??_LAT_to_Arr 019F          LAT_to_Arr@d_result 01AA  
         ??_highPriorityISR 0002                  _log2f$1350 0070                  _log2f$1351 0082  
                _log2f$1352 0074                  _log2f$1353 0078                  _log2f$1348 0096  
                _log2f$1349 006C          __size_of_tmr1_init 000E       __end_of_seven_segment 34AC  
                   TSM@tmp2 01A1                   ?_adc_init 0001          __end_of_LAT_to_Arr 254C  
                 ?___xxtofl 0004                     i2_Pulse 382A                     _InitLCD 3572  
                   __Hparam 0000                     __Lparam 0000                     ___fladd 187C  
                   ___fldiv 254C                     ___awdiv 34AC                     ___flmul 1D3C  
                   ___flsub 36DE                     ___fltol 31EA                __psmallconst 1000  
                   _charNum 00D6                     __pcinit 3670                     __ramtop 1000  
                ??_adc_init 019E                     __ptext0 35F6                     __ptext1 3724  
                   __ptext2 383C                     __ptext3 37E4                     __ptext4 3572  
                   __ptext5 28E6                     __ptext6 2E5C                     __ptext7 2BB2  
                   __ptext8 34AC                     __ptext9 2166             _SendBusContents 3762  
              __size_of_CDM 02AA                __size_of_TEM 02CC                __size_of_TSM 01DA  
                   _ivln2hi 1015                  ??___xxtofl 0008                     _ivln2lo 1011  
                   _old_pos 005A                     log2f@t1 0064                     log2f@t2 0068  
                   log2f@hi 009A                     log2f@lo 007E                     log2f@ix 00A6  
             TEM@charSelect 01B0              __pintcode_body 32F2        end_of_initialization 36CC  
         __end_of_tmr1_init 384A                     int_func 32F2                     postdec1 000FE5  
                   postdec2 000FDD                     postinc0 000FEE                     postinc1 000FE6  
                   postinc2 000FDE                   _PORTBbits 000F81                   _PORTEbits 000F84  
               ___fladd@grs 002C               ___xxtofl@sign 000C             _custom_sentence 0140  
               ___fldiv@grs 0048                 ___fldiv@rem 0041            ??_lowPriorityISR 00B7  
               ___flmul@grs 0011     __end_of_SendBusContents 3792       i2SendBusContents@data 0001  
       start_initialization 3670                 __end_of_CDM 2E5C                 __end_of_TEM 2BB2  
               __end_of_Lg1 1011                 __end_of_Lg2 100D                 __end_of_Lg3 1009  
               __end_of_Lg4 1005                 __end_of_TSM 3036             _highPriorityISR 0008  
   _SSEGMENT_NUMBERS_GLYPHS 00BE                 __pdataBANK0 00BE                 __pdataBANK1 0176  
                 ___fladd@a 0021                   ___fladd@b 001D                   ___fldiv@a 0039  
                 ___fldiv@b 0035           __size_of_adc_init 0022                   ___flmul@a 0008  
                 ___flmul@b 0004                 __pbssCOMRAM 005A                   ___flsub@a 0031  
                 ___flsub@b 002D               __pcstackBANK0 0060               __pcstackBANK1 019E  
         __size_of___xxtofl 01B4                    ?i2_Pulse 0001                _currentIndex 0174  
                  ?_InitLCD 0001                   __pintcode 0008                    ?___fladd 001D  
          ?_SendBusContents 0001                    ?___fldiv 0035                    ?___awdiv 019E  
                  ?___flmul 0004                    ?___flsub 002D                    ?___fltol 00AA  
               __pintcodelo 0018     __end_of_highPriorityISR 33D4                 __smallconst 1000  
                  TSM@i_654 01A6                  TEM@pressed 01B2              __size_of_Pulse 0012  
            __size_of_log2f 0862      __size_of_seven_segment 00D8                    _IPR1bits 000F9F  
                  _PIE1bits 000F9D                   _tmr1_init 383C                    i1u200_20 1BD6  
                  i1u200_21 1BD2                    i1u201_20 1BE6                    i1u201_21 1BE2  
                  i1u210_20 1CCA                    i1u202_20 1C02                    i1u210_21 1CC6  
                  i1u202_21 1BFE                    i1u211_20 1CDA                    i1u203_20 1C12  
                  i1u211_21 1CD6                    i1u203_21 1C0E                    i1u220_20 25DE  
                  i1u212_20 1CFA                    i1u204_20 1C24                    i1u220_21 25DA  
                  i1u212_21 1CF6                    i1u204_21 1C20                    i1u221_20 25EE  
                  i1u213_20 1D0C                    i1u205_20 1C3A                    i1u221_21 25EA  
                  i1u213_21 1D08                    i1u205_21 1C36                    i1u230_20 27A8  
                  i1u222_20 262E                    i1u214_20 1D28                    i1u206_20 1C50  
                  i1u230_21 27A4                    i1u222_21 262A                    i1u214_21 1D24  
                  i1u206_21 1C4C                    i1u231_20 27BA                    i1u223_20 266E  
                  i1u207_20 1C64                    i1u231_21 27B6                    i1u223_21 266A  
                  i1u207_21 1C60                    i1u232_20 27E8                    i1u224_20 26E4  
                  i1u216_20 2566                    i1u240_20 1D68                    i1u208_20 1C7E  
                  i1u232_21 27E4                    i1u224_21 26E0                    i1u216_21 2562  
                  i1u240_21 1D64                    i1u208_21 1C7A                    i1u233_20 27FE  
                  i1u225_20 2706                    i1u217_20 2578                    i1u241_20 1D78  
                  i1u209_20 1CB8                    i1u233_21 27FA                    i1u225_21 2702  
                  i1u217_21 2574                    i1u241_21 1D74                    i1u209_21 1CB4  
                  i1u234_20 2812                    i1u226_20 2730                    i1u218_20 2588  
                  i1u250_20 2026                    i1u242_20 1DB8                    i1u234_21 280E  
                  i1u226_21 272C                    i1u218_21 2584                    i1u250_21 2022  
                  i1u242_21 1DB4                    i1u235_20 282C                    i1u227_20 2754  
                  i1u219_20 25CC                    i1u251_20 2054                    i1u243_20 1DCA  
                  i1u235_21 2828                    i1u227_21 2750                    i1u219_21 25C8  
                  i1u251_21 2050                    i1u243_21 1DC6                    i1u236_20 2874  
                  i1u228_20 276A                    i1u252_20 206A                    i1u244_20 1DDA  
                  i1u180_20 1910                    i1u236_21 2870                    i1u228_21 2766  
                  i1u252_21 2066                    i1u244_21 1DD6                    i1u180_21 190C  
                  i1u237_20 28A4                    i1u229_20 2788                    i1u253_20 207E  
                  i1u245_20 1E10                    i1u181_20 1922                    i1u237_21 28A0  
                  i1u229_21 2784                    i1u253_21 207A                    i1u245_21 1E0C  
                  i1u181_21 191E                    i1u238_20 28D2                    i1u254_20 2098  
                  i1u246_20 1E20                    i1u190_20 1A6A                    i1u182_20 1932  
                  i1u270_20 3180                    i1u238_21 28CE                    i1u254_21 2094  
                  i1u246_21 1E1C                    i1u190_21 1A66                    i1u182_21 192E  
                  i1u270_21 317C                    i1u351_20 3202                    i1u255_20 20E0  
                  i1u247_20 1F9A                    i1u239_20 1D56                    i1u191_20 1A78  
                  i1u183_20 196E                    i1u271_20 318E                    i1u351_21 31FE  
                  i1u255_21 20DC                    i1u239_21 1D52                    i1u191_21 1A74  
                  i1u183_21 196A                    i1u271_21 318A                    i1u247_25 1F90  
                  i1u352_20 3236                    i1u256_20 210E                    i1u248_20 1FF4  
                  i1u192_20 1A88                    i1u184_20 197C                    i1u176_20 1896  
                  i1u272_20 31C8                    i1u264_20 3048                    i1u280_20 1240  
                  i1u256_21 210A                    i1u248_21 1FF0                    i1u192_21 1A84  
                  i1u184_21 1978                    i1u176_21 1892                    i1u272_21 31C4  
                  i1u264_21 3044                    i1u280_21 123C                    i1u352_25 322C  
                  i1u353_20 3264                    i1u257_20 2148                    i1u249_20 2014  
                  i1u193_20 1ABA                    i1u185_20 19EA                    i1u177_20 18A8  
                  i1u273_20 31D6                    i1u265_20 3056                    i1u281_20 1270  
                  i1u353_21 3260                    i1u257_21 2144                    i1u249_21 2010  
                  i1u193_21 1AB6                    i1u185_21 19E6                    i1u177_21 18A4  
                  i1u273_21 31D2                    i1u265_21 3052                    i1u281_21 126C  
                  i1u354_20 3278                    i1u194_20 1AC8                    i1u186_20 1A02  
                  i1u178_20 18B8                    i1u266_20 30B2                    i1u282_20 12BE  
                  i1u274_20 106A                    i1u354_21 3274                    i1u194_21 1AC4  
                  i1u186_21 19FC                    i1u178_21 18B4                    i1u266_21 30AE  
                  i1u274_21 1066                    i1u282_25 12B4                    i1u370_27 33F4  
                  i1u355_20 32A0                    i1u195_20 1AE6                    i1u187_20 1A04  
                  i1u179_20 18FA                    i1u267_20 3108                    i1u275_20 108A  
                  i1u355_21 329C                    i1u195_21 1AE2                    i1u179_21 18F6  
                  i1u267_21 3104                    i1u275_25 1080                    i1u371_27 3420  
                  i1u356_20 32C0                    i1u196_20 1B1E                    i1u188_20 1A2C  
                  i1u268_20 3152                    i1u276_20 10A6                    i1u356_21 32BC  
                  i1u196_21 1B1A                    i1u188_21 1A28                    i1u268_21 314E  
                  i1u276_21 10A2                    i1u372_27 349C                    i1u357_20 32D0  
                  i1u197_20 1B64                    i1u189_20 1A4A                    i1u269_20 3170  
                  i1u277_20 10CE                    i1u357_21 32CC                    i1u197_21 1B60  
                  i1u189_21 1A46                    i1u269_21 316C                    i1u277_21 10CA  
                  i1u198_20 1B9A                    i1u278_20 114A                    i1u358_20 0044  
                  i1u198_21 1B96                    i1u358_21 0040                    i1u278_25 1140  
                  i1u199_20 1BAA                    i1u279_20 1166                    i1u199_21 1BA6  
                  i1u279_21 1162                    i2u342_40 3302                    i2u342_41 32FE  
                  i2u343_40 3310                    i2u343_41 330C                    i2u344_45 332A  
                  i2u345_40 334C                    i2u345_41 3348                    _PIR1bits 000F9E  
                  i2u346_40 3382                    i2u346_41 337E                    i2u347_40 3398  
                  i2u347_41 3394                    i2u348_40 33D0                    i2u348_41 33CC  
                  i2u373_47 382E                    i2u374_47 3836                    _RCONbits 000FD0  
                 log2f@F472 00D0         SendBusContents@data 019E                  _ADCON0bits 000FC2  
                 log2f@hfsq 0086                   copy_data0 3684                   copy_data1 36A4  
          __size_ofi2_Pulse 0012                  ?_tmr1_init 0001            __size_of_InitLCD 0084  
                  __Hrparam 0000                    __Lrparam 0000                __Lsmallconst 1000  
          __size_of___fladd 04C0            __size_of___fldiv 039A            __size_of___awdiv 00C6  
          __size_of___flmul 042A            __size_of___flsub 0046            __size_of___fltol 0108  
                  _adc_init 37E4               _seven_segment 33D4            ?_highPriorityISR 0001  
                  ___xxtofl 3036                 _customChars 0100                 _customIndex 019C  
                  __ptext10 3762                    __ptext11 3818                    __ptext20 31EA  
                  __ptext13 33D4                    __ptext22 3792                    __ptext14 101A  
                  __ptext23 382A                    __ptext15 3036                    __ptext16 36DE  
                  __ptext17 187C                    __ptext18 1D3C                    __ptext19 254C  
             __size_of_main 007A               __size_of_init 003E                    _sentence 0160  
                  int$flags 005C              ?_seven_segment 0001                  _INTCONbits 000FF2  
                  intlevel1 0000                    intlevel2 0000                  _LAT_to_Arr 2166  
               ??_tmr1_init 019E                  _PREDEFINED 0176     __size_of_lowPriorityISR 0050  
             ___fladd@signs 0029                ___fladd@aexp 002A                ___fladd@bexp 002B  
